 continental_test_sfun

 Timestamp is 5e81b1fb (Mon Mar 30 16:46:51 2020)

 Preferred load address is 0000000180000000

 Start         Length     Name                   Class
 0001:00000000 0002d3feH .text                   CODE
 0001:0002d400 0000007bH .text$x                 CODE
 0002:00000000 00000458H .idata$5                DATA
 0002:00000458 00000008H .CRT$XCA                DATA
 0002:00000460 00000008H .CRT$XCZ                DATA
 0002:00000468 00000008H .CRT$XIA                DATA
 0002:00000470 00000008H .CRT$XIAA               DATA
 0002:00000478 00000008H .CRT$XIC                DATA
 0002:00000480 00000008H .CRT$XIZ                DATA
 0002:00000490 000007d0H .rdata                  DATA
 0002:00000c60 00000008H .rtc$IAA                DATA
 0002:00000c68 00000008H .rtc$IZZ                DATA
 0002:00000c70 00000008H .rtc$TAA                DATA
 0002:00000c78 00000008H .rtc$TZZ                DATA
 0002:00000c80 00000ce4H .xdata                  DATA
 0002:00001964 0000008cH .idata$2                DATA
 0002:000019f0 00000014H .idata$3                DATA
 0002:00001a08 00000458H .idata$4                DATA
 0002:00001e60 00000c2eH .idata$6                DATA
 0002:00002a90 0000005bH .edata                  DATA
 0003:00000000 000094d8H .data                   DATA
 0003:000094e0 000006f8H .bss                    DATA
 0004:00000000 00000f9cH .pdata                  DATA

  Address         Publics by Value              Rva+Base               Lib:Object

 0000:00000000       ___safe_se_handler_count   0000000000000000     <absolute>
 0000:00000000       ___safe_se_handler_table   0000000000000000     <absolute>
 0000:00000000       __ImageBase                0000000180000000     <linker-defined>
 0001:00000000       continental_test_initializer 0000000180001000 f   continental_test_sfun.obj
 0001:00000010       continental_test_terminator 0000000180001010 f   continental_test_sfun.obj
 0001:00000020       load_continental_test_optimization_info 0000000180001020 f   continental_test_sfun.obj
 0001:00000070       unload_continental_test_optimization_info 0000000180001070 f   continental_test_sfun.obj
 0001:000000a0       sf_continental_test_method_dispatcher 00000001800010a0 f   continental_test_sfun.obj
 0001:00000170       sf_continental_test_process_check_sum_call 0000000180001170 f   continental_test_sfun.obj
 0001:00000850       sf_continental_test_autoinheritance_info 0000000180001850 f   continental_test_sfun.obj
 0001:00000bd0       sf_continental_test_get_eml_resolved_functions_info 0000000180001bd0 f   continental_test_sfun.obj
 0001:00000e50       sf_continental_test_third_party_uses_info 0000000180001e50 f   continental_test_sfun.obj
 0001:00001110       sf_continental_test_updateBuildInfo_args_info 0000000180002110 f   continental_test_sfun.obj
 0001:000013d0       continental_test_debug_initialize 00000001800023d0 f   continental_test_sfun.obj
 0001:00001450       continental_test_register_exported_symbols 0000000180002450 f   continental_test_sfun.obj
 0001:00001460       sf_c1_continental_test_get_eml_resolved_functions_info 0000000180002460 f   c1_continental_test.obj
 0001:000014e0       sf_c1_continental_test_get_check_sum 00000001800024e0 f   c1_continental_test.obj
 0001:000015b0       c1_continental_test_method_dispatcher 00000001800025b0 f   c1_continental_test.obj
 0001:00003110       sf_c1_continental_test_get_autoinheritance_info 0000000180004110 f   c1_continental_test.obj
 0001:00003920       sf_c1_continental_test_third_party_uses_info 0000000180004920 f   c1_continental_test.obj
 0001:00003950       sf_c1_continental_test_updateBuildInfo_args_info 0000000180004950 f   c1_continental_test.obj
 0001:00004770       sf_internal_get_sim_state_c1_continental_test 0000000180005770 f   c1_continental_test.obj
 0001:000048d0       sf_internal_set_sim_state_c1_continental_test 00000001800058d0 f   c1_continental_test.obj
 0001:00005450       sf_c2_continental_test_get_eml_resolved_functions_info 0000000180006450 f   c2_continental_test.obj
 0001:000054c0       sf_c2_continental_test_get_check_sum 00000001800064c0 f   c2_continental_test.obj
 0001:00005590       c2_continental_test_method_dispatcher 0000000180006590 f   c2_continental_test.obj
 0001:0000d190       sf_c2_continental_test_get_autoinheritance_info 000000018000e190 f   c2_continental_test.obj
 0001:0000d850       sf_c2_continental_test_third_party_uses_info 000000018000e850 f   c2_continental_test.obj
 0001:0000d880       sf_c2_continental_test_updateBuildInfo_args_info 000000018000e880 f   c2_continental_test.obj
 0001:0000eb00       sf_internal_get_sim_state_c2_continental_test 000000018000fb00 f   c2_continental_test.obj
 0001:0000ec60       sf_internal_set_sim_state_c2_continental_test 000000018000fc60 f   c2_continental_test.obj
 0001:0000f7a0       sf_c3_continental_test_get_eml_resolved_functions_info 00000001800107a0 f   c3_continental_test.obj
 0001:0000f820       sf_c3_continental_test_get_check_sum 0000000180010820 f   c3_continental_test.obj
 0001:0000f8f0       c3_continental_test_method_dispatcher 00000001800108f0 f   c3_continental_test.obj
 0001:00013a50       sf_c3_continental_test_get_autoinheritance_info 0000000180014a50 f   c3_continental_test.obj
 0001:00014110       sf_c3_continental_test_third_party_uses_info 0000000180015110 f   c3_continental_test.obj
 0001:00014140       sf_c3_continental_test_updateBuildInfo_args_info 0000000180015140 f   c3_continental_test.obj
 0001:00014f50       sf_internal_get_sim_state_c3_continental_test 0000000180015f50 f   c3_continental_test.obj
 0001:000150b0       sf_internal_set_sim_state_c3_continental_test 00000001800160b0 f   c3_continental_test.obj
 0001:00015b80       sf_c4_continental_test_get_eml_resolved_functions_info 0000000180016b80 f   c4_continental_test.obj
 0001:00015bf0       sf_c4_continental_test_get_check_sum 0000000180016bf0 f   c4_continental_test.obj
 0001:00015cc0       c4_continental_test_method_dispatcher 0000000180016cc0 f   c4_continental_test.obj
 0001:0001f690       sf_c4_continental_test_get_autoinheritance_info 0000000180020690 f   c4_continental_test.obj
 0001:0001fbf0       sf_c4_continental_test_third_party_uses_info 0000000180020bf0 f   c4_continental_test.obj
 0001:0001fc20       sf_c4_continental_test_updateBuildInfo_args_info 0000000180020c20 f   c4_continental_test.obj
 0001:00020870       sf_internal_get_sim_state_c4_continental_test 0000000180021870 f   c4_continental_test.obj
 0001:000209d0       sf_internal_set_sim_state_c4_continental_test 00000001800219d0 f   c4_continental_test.obj
 0001:000214e0       sf_c5_continental_test_get_eml_resolved_functions_info 00000001800224e0 f   c5_continental_test.obj
 0001:00021560       sf_c5_continental_test_get_check_sum 0000000180022560 f   c5_continental_test.obj
 0001:00021630       c5_continental_test_method_dispatcher 0000000180022630 f   c5_continental_test.obj
 0001:00023aa0       sf_c5_continental_test_get_autoinheritance_info 0000000180024aa0 f   c5_continental_test.obj
 0001:000242b0       sf_c5_continental_test_third_party_uses_info 00000001800252b0 f   c5_continental_test.obj
 0001:000242e0       sf_c5_continental_test_updateBuildInfo_args_info 00000001800252e0 f   c5_continental_test.obj
 0001:00025200       sf_internal_get_sim_state_c5_continental_test 0000000180026200 f   c5_continental_test.obj
 0001:00025360       sf_internal_set_sim_state_c5_continental_test 0000000180026360 f   c5_continental_test.obj
 0001:00025ea0       mexFunction                0000000180026ea0 f   continental_test_sfun_registry.obj
 0001:00027040       _ssSetInputPortDirectFeedThroughFcn 0000000180028040 f   continental_test_sfun_registry.obj
 0001:000271a0       _ssGetInputPortSignalPtrsFcn 00000001800281a0 f   continental_test_sfun_registry.obj
 0001:000273c0       _ssGetInputPortSignalFcn   00000001800283c0 f   continental_test_sfun_registry.obj
 0001:000275e0       _ssSetInputPortReusableFcn 00000001800285e0 f   continental_test_sfun_registry.obj
 0001:000276c0       _ssSetOutputPortReusableFcn 00000001800286c0 f   continental_test_sfun_registry.obj
 0001:000277a0       ssGetIsZeroCrossControlDisabled 00000001800287a0 f   continental_test_sfun_registry.obj
 0001:00027810       ssSetIsInputPortUsedForContZcSignal 0000000180028810 f   continental_test_sfun_registry.obj
 0001:00027880       ssSetZcSignalIsZcElementDisc 0000000180028880 f   continental_test_sfun_registry.obj
 0001:00027930       ssSetZcSignalName          0000000180028930 f   continental_test_sfun_registry.obj
 0001:000279a0       ssSetZcSignalWidth         00000001800289a0 f   continental_test_sfun_registry.obj
 0001:00027a10       ssSetZcSignalZcEventType   0000000180028a10 f   continental_test_sfun_registry.obj
 0001:00027a80       ssSetZcSignalType          0000000180028a80 f   continental_test_sfun_registry.obj
 0001:00027af0       ssSetZcSignalZcTol         0000000180028af0 f   continental_test_sfun_registry.obj
 0001:00027b60       ssSetZcSignalNeedsEventNotification 0000000180028b60 f   continental_test_sfun_registry.obj
 0001:00027bd0       ssCreateAndAddZcSignalInfo 0000000180028bd0 f   continental_test_sfun_registry.obj
 0001:00027c40       ssCloneAndAddZcSignalInfo  0000000180028c40 f   continental_test_sfun_registry.obj
 0001:00027cb0       ssGetNumZcSignals          0000000180028cb0 f   continental_test_sfun_registry.obj
 0001:00027d20       ssGetZcSignalVector        0000000180028d20 f   continental_test_sfun_registry.obj
 0001:00027d90       ssGetZcSignalName          0000000180028d90 f   continental_test_sfun_registry.obj
 0001:00027e00       ssGetZcSignalWidth         0000000180028e00 f   continental_test_sfun_registry.obj
 0001:00027e70       ssGetZcSignalZcEventType   0000000180028e70 f   continental_test_sfun_registry.obj
 0001:00027ee0       ssGetZcSignalZcEvents      0000000180028ee0 f   continental_test_sfun_registry.obj
 0001:00027f50       ssGetZcSignalType          0000000180028f50 f   continental_test_sfun_registry.obj
 0001:00027fc0       ssGetZcSignalZcTol         0000000180028fc0 f   continental_test_sfun_registry.obj
 0001:00028040       ssGetZcSignalNeedsEventNotification 0000000180029040 f   continental_test_sfun_registry.obj
 0001:000280b0       ssGetZcSignalIsZcElementDisc 00000001800290b0 f   continental_test_sfun_registry.obj
 0001:00028150       ssGetIsInputPortElementContinuous 0000000180029150 f   continental_test_sfun_registry.obj
 0001:000281f0       ssGetDTypeIdFromMxArray    00000001800291f0 f   continental_test_sfun_registry.obj
 0001:00028310       ssWriteRTWStr              0000000180029310 f   continental_test_sfun_registry.obj
 0001:00028370       ssWriteRTWNameValuePair    0000000180029370 f   continental_test_sfun_registry.obj
 0001:00028870       ssWriteRTWParamSettings    0000000180029870 f   continental_test_sfun_registry.obj
 0001:00028f60       ssWriteRTWParameters       0000000180029f60 f   continental_test_sfun_registry.obj
 0001:00029530       ssWriteRTWWorkVect         000000018002a530 f   continental_test_sfun_registry.obj
 0001:00029a20       ssWriteRTWMxVectParam      000000018002aa20 f   continental_test_sfun_registry.obj
 0001:00029aa0       ssWriteRTWMx2dMatParam     000000018002aaa0 f   continental_test_sfun_registry.obj
 0001:00029b30       _ssSetInputPortMatrixDimensions 000000018002ab30 f   continental_test_sfun_registry.obj
 0001:00029c30       _ssSetOutputPortMatrixDimensions 000000018002ac30 f   continental_test_sfun_registry.obj
 0001:00029d30       _ssSetInputPortVectorDimension 000000018002ad30 f   continental_test_sfun_registry.obj
 0001:00029de0       _ssSetOutputPortVectorDimension 000000018002ade0 f   continental_test_sfun_registry.obj
 0001:00029e90       ssIsRunTimeParamTunable    000000018002ae90 f   continental_test_sfun_registry.obj
 0001:00029f00       ssGetSFuncBlockHandle      000000018002af00 f   continental_test_sfun_registry.obj
 0001:00029f70       _ssGetCurrentInputPortWidth 000000018002af70 f   continental_test_sfun_registry.obj
 0001:0002a090       _ssGetCurrentOutputPortWidth 000000018002b090 f   continental_test_sfun_registry.obj
 0001:0002a1b0       _ssGetCallSystemNumFcnCallDestinations 000000018002b1b0 f   continental_test_sfun_registry.obj
 0001:0002a220       ssWarning                  000000018002b220 f   continental_test_sfun_registry.obj
 0001:0002a310       _ssGetAbsTol               000000018002b310 f   continental_test_sfun_registry.obj
 0001:0002a380       _ssSetStateAbsTol          000000018002b380 f   continental_test_sfun_registry.obj
 0001:0002a460       sf_process_check_sum_call  000000018002b460 f   continental_test_sfun_registry.obj
 0001:0002a4b0       sf_process_autoinheritance_call 000000018002b4b0 f   continental_test_sfun_registry.obj
 0001:0002a6e0       sf_process_get_third_party_uses_info_call 000000018002b6e0 f   continental_test_sfun_registry.obj
 0001:0002a910       sf_process_get_updateBuildInfo_args_info_call 000000018002b910 f   continental_test_sfun_registry.obj
 0001:0002ab40       sf_process_get_eml_resolved_functions_info_call 000000018002bb40 f   continental_test_sfun_registry.obj
 0001:0002ad40       sf_mex_unlock_call         000000018002bd40 f   continental_test_sfun_registry.obj
 0001:0002afb0       sf_machine_global_initializer_called 000000018002bfb0 f   continental_test_sfun_registry.obj
 0001:0002afe0       sf_machine_global_method_dispatcher 000000018002bfe0 f   continental_test_sfun_registry.obj
 0001:0002b040       sf_machine_global_terminator 000000018002c040 f   continental_test_sfun_registry.obj
 0001:0002b090       sf_register_machine_exported_symbols 000000018002c090 f   continental_test_sfun_registry.obj
 0001:0002b0b0       callCustomFcn              000000018002c0b0 f   continental_test_sfun_registry.obj
 0001:0002b0c0       sf_machine_global_initializer 000000018002c0c0 f   continental_test_sfun_registry.obj
 0001:0002b180       mdlGetSimState             000000018002c180 f   continental_test_sfun_registry.obj
 0001:0002b1c0       mdlSetSimState             000000018002c1c0 f   continental_test_sfun_registry.obj
 0001:0002b960       ProcessMexSfunctionEveryCall 000000018002c960 f   continental_test_sfun_registry.obj
 0001:0002c5d4       sf_load_rtw_optimization_info 000000018002d5d4 f   sf_runtime:sf_runtime.dll
 0001:0002c5da       sf_debug_initialize_machine 000000018002d5da f   sf_runtime:sf_runtime.dll
 0001:0002c5e0       sf_debug_set_machine_event_thresholds 000000018002d5e0 f   sf_runtime:sf_runtime.dll
 0001:0002c5e6       sf_debug_set_machine_data_thresholds 000000018002d5e6 f   sf_runtime:sf_runtime.dll
 0001:0002c5ec       sf_rtw_info_uint_prop      000000018002d5ec f   sf_runtime:sf_runtime.dll
 0001:0002c5f2       sf_update_buildInfo        000000018002d5f2 f   sf_runtime:sf_runtime.dll
 0001:0002c5f8       sf_is_chart_inlinable      000000018002d5f8 f   sf_runtime:sf_runtime.dll
 0001:0002c5fe       sf_mark_chart_reusable_outputs 000000018002d5fe f   sf_runtime:sf_runtime.dll
 0001:0002c604       sf_mark_chart_expressionable_inputs 000000018002d604 f   sf_runtime:sf_runtime.dll
 0001:0002c60a       sim_mode_is_rtw_gen        000000018002d60a f   sf_runtime:sf_runtime.dll
 0001:0002c610       sim_mode_is_external       000000018002d610 f   sf_runtime:sf_runtime.dll
 0001:0002c616       sf_mex_listen_for_ctrl_c   000000018002d616 f   sf_runtime:sf_runtime.dll
 0001:0002c61c       sf_clear_rtw_identifier    000000018002d61c f   sf_runtime:sf_runtime.dll
 0001:0002c622       sf_set_rtw_dwork_info      000000018002d622 f   sf_runtime:sf_runtime.dll
 0001:0002c628       sf_get_time                000000018002d628 f   sf_runtime:sf_runtime.dll
 0001:0002c62e       sf_mex_call_matlab         000000018002d62e f   sf_runtime:sf_runtime.dll
 0001:0002c634       sf_mex_error_message       000000018002d634 f   sf_runtime:sf_runtime.dll
 0001:0002c63a       sf_mex_create              000000018002d63a f   sf_runtime:sf_runtime.dll
 0001:0002c640       sf_mex_createcellmatrix    000000018002d640 f   sf_runtime:sf_runtime.dll
 0001:0002c646       sf_mex_setcell             000000018002d646 f   sf_runtime:sf_runtime.dll
 0001:0002c64c       sf_mex_getcell             000000018002d64c f   sf_runtime:sf_runtime.dll
 0001:0002c652       sf_mex_assign              000000018002d652 f   sf_runtime:sf_runtime.dll
 0001:0002c658       sf_mex_dup                 000000018002d658 f   sf_runtime:sf_runtime.dll
 0001:0002c65e       sf_mex_destroy             000000018002d65e f   sf_runtime:sf_runtime.dll
 0001:0002c664       sf_mex_import              000000018002d664 f   sf_runtime:sf_runtime.dll
 0001:0002c66a       sf_mex_decode_encoded_mx_struct_array 000000018002d66a f   sf_runtime:sf_runtime.dll
 0001:0002c670       sf_debug_initialize_chart  000000018002d670 f   sf_runtime:sf_runtime.dll
 0001:0002c676       sf_debug_call              000000018002d676 f   sf_runtime:sf_runtime.dll
 0001:0002c67c       eml_debug_line_call        000000018002d67c f   sf_runtime:sf_runtime.dll
 0001:0002c682       cv_eml_eval                000000018002d682 f   sf_runtime:sf_runtime.dll
 0001:0002c688       cv_eml_init_script         000000018002d688 f   sf_runtime:sf_runtime.dll
 0001:0002c68e       cv_eml_init_fcn            000000018002d68e f   sf_runtime:sf_runtime.dll
 0001:0002c694       cv_eml_init_for            000000018002d694 f   sf_runtime:sf_runtime.dll
 0001:0002c69a       sf_debug_reset_current_state_configuration 000000018002d69a f   sf_runtime:sf_runtime.dll
 0001:0002c6a0       sf_debug_check_for_state_inconsistency 000000018002d6a0 f   sf_runtime:sf_runtime.dll
 0001:0002c6a6       sf_debug_set_chart_data_props 000000018002d6a6 f   sf_runtime:sf_runtime.dll
 0001:0002c6ac       sf_debug_set_chart_data_compiled_props 000000018002d6ac f   sf_runtime:sf_runtime.dll
 0001:0002c6b2       sf_debug_symbol_scope_push 000000018002d6b2 f   sf_runtime:sf_runtime.dll
 0001:0002c6b8       sf_debug_symbol_scope_push_eml 000000018002d6b8 f   sf_runtime:sf_runtime.dll
 0001:0002c6be       sf_debug_symbol_scope_pop  000000018002d6be f   sf_runtime:sf_runtime.dll
 0001:0002c6c4       sf_debug_symbol_scope_add_eml 000000018002d6c4 f   sf_runtime:sf_runtime.dll
 0001:0002c6ca       sf_debug_symbol_scope_add_eml_importable 000000018002d6ca f   sf_runtime:sf_runtime.dll
 0001:0002c6d0       sf_debug_set_instance_data_value_ptr 000000018002d6d0 f   sf_runtime:sf_runtime.dll
 0001:0002c6d6       sf_debug_set_chart_disable_implicit_casting 000000018002d6d6 f   sf_runtime:sf_runtime.dll
 0001:0002c6dc       sf_debug_set_chart_event_thresholds 000000018002d6dc f   sf_runtime:sf_runtime.dll
 0001:0002c6e2       sf_debug_set_chart_state_info 000000018002d6e2 f   sf_runtime:sf_runtime.dll
 0001:0002c6e8       sf_debug_set_chart_decomposition 000000018002d6e8 f   sf_runtime:sf_runtime.dll
 0001:0002c6ee       sf_debug_set_chart_substate_count 000000018002d6ee f   sf_runtime:sf_runtime.dll
 0001:0002c6f4       sf_debug_for_loop_vector_check 000000018002d6f4 f   sf_runtime:sf_runtime.dll
 0001:0002c6fa       sf_debug_data_range_wrapper 000000018002d6fa f   sf_runtime:sf_runtime.dll
 0001:0002c700       sf_debug_cv_init_trans     000000018002d700 f   sf_runtime:sf_runtime.dll
 0001:0002c706       sf_debug_cv_init_chart     000000018002d706 f   sf_runtime:sf_runtime.dll
 0001:0002c70c       sf_debug_cv_init_state     000000018002d70c f   sf_runtime:sf_runtime.dll
 0001:0002c712       sf_mex_addfield            000000018002d712 f   sf_runtime:sf_runtime.dll
 0001:0002c718       sf_mex_createstruct        000000018002d718 f   sf_runtime:sf_runtime.dll
 0001:0002c71e       sf_mex_duplicatearraysafe  000000018002d71e f   sf_runtime:sf_runtime.dll
 0001:0002c724       sf_mex_emlrtNameCapturePostProcessR2012a 000000018002d724 f   sf_runtime:sf_runtime.dll
 0001:0002c72a       cv_eml_init_if             000000018002d72a f   sf_runtime:sf_runtime.dll
 0001:0002c730       cv_eml_init_mcdc           000000018002d730 f   sf_runtime:sf_runtime.dll
 0001:0002c736       sf_debug_eml_data_array_bounds_error_check 000000018002d736 f   sf_runtime:sf_runtime.dll
 0001:0002c73c       sf_debug_integer_check     000000018002d73c f   sf_runtime:sf_runtime.dll
 0001:0002c742       cv_eml_init_while          000000018002d742 f   sf_runtime:sf_runtime.dll
 0001:0002c748       cv_eml_init_switch         000000018002d748 f   sf_runtime:sf_runtime.dll
 0001:0002c74e       callMdlMethodAndReportError 000000018002d74e f   sf_runtime:sf_runtime.dll
 0001:0002c754       call_sf_machine_global_method_dispatcher 000000018002d754 f   sf_runtime:sf_runtime.dll
 0001:0002c75a       sf_mex_error_direct_call   000000018002d75a f   sf_runtime:sf_runtime.dll
 0001:0002c760       sf_clear_error_manager_info 000000018002d760 f   sf_runtime:sf_runtime.dll
 0001:0002c766       sf_debug_create_debug_instance_struct 000000018002d766 f   sf_runtime:sf_runtime.dll
 0001:0002c76c       sf_debug_terminate         000000018002d76c f   sf_runtime:sf_runtime.dll
 0001:0002c772       sf_debug_api               000000018002d772 f   sf_runtime:sf_runtime.dll
 0001:0002c778       mxIsChar                   000000018002d778 f   libmx:libmx.dll
 0001:0002c77e       mxGetPr                    000000018002d77e f   libmx:libmx.dll
 0001:0002c784       mxGetScalar                000000018002d784 f   libmx:libmx.dll
 0001:0002c78a       mxDestroyArray             000000018002d78a f   libmx:libmx.dll
 0001:0002c790       mxCreateDoubleMatrix_730   000000018002d790 f   libmx:libmx.dll
 0001:0002c796       mxGetString_730            000000018002d796 f   libmx:libmx.dll
 0001:0002c79c       mxDuplicateArray           000000018002d79c f   libmx:libmx.dll
 0001:0002c7a2       mxSetField_730             000000018002d7a2 f   libmx:libmx.dll
 0001:0002c7a8       mxCreateDoubleScalar       000000018002d7a8 f   libmx:libmx.dll
 0001:0002c7ae       mxCreateString             000000018002d7ae f   libmx:libmx.dll
 0001:0002c7b4       mxCreateCellMatrix_730     000000018002d7b4 f   libmx:libmx.dll
 0001:0002c7ba       mxCreateStructMatrix_730   000000018002d7ba f   libmx:libmx.dll
 0001:0002c7c0       mxCalloc                   000000018002d7c0 f   libmx:libmx.dll
 0001:0002c7c6       mxGetM                     000000018002d7c6 f   libmx:libmx.dll
 0001:0002c7cc       mxGetClassID               000000018002d7cc f   libmx:libmx.dll
 0001:0002c7d2       mxIsNumeric                000000018002d7d2 f   libmx:libmx.dll
 0001:0002c7d8       mxIsComplex                000000018002d7d8 f   libmx:libmx.dll
 0001:0002c7de       mxGetN                     000000018002d7de f   libmx:libmx.dll
 0001:0002c7e4       mexMakeArrayPersistent     000000018002d7e4 f   libmex:libmex.dll
 0001:0002c7ea       mexErrMsgTxt               000000018002d7ea f   libmex:libmex.dll
 0001:0002c7f0       mexWarnMsgTxt              000000018002d7f0 f   libmex:libmex.dll
 0001:0002c7f6       mexCallMATLAB              000000018002d7f6 f   libmex:libmex.dll
 0001:0002c7fc       mexLock                    000000018002d7fc f   libmex:libmex.dll
 0001:0002c802       mexUnlock                  000000018002d802 f   libmex:libmex.dll
 0001:0002c808       mexIsLocked                000000018002d808 f   libmex:libmex.dll
 0001:0002c80e       utMalloc                   000000018002d80e f   libut:libut.dll
 0001:0002c814       utFree                     000000018002d814 f   libut:libut.dll
 0001:0002c81a       muDoubleScalarIsNaN        000000018002d81a f   libmwmathutil:libmwmathutil.dll
 0001:0002c820       __raise_securityfailure    000000018002d820 f   MSVCRT:gs_report.obj
 0001:0002c86c       __report_gsfailure         000000018002d86c f   MSVCRT:gs_report.obj
 0001:0002c940       __report_rangecheckfailure 000000018002d940 f   MSVCRT:gs_report.obj
 0001:0002c954       __report_securityfailure   000000018002d954 f   MSVCRT:gs_report.obj
 0001:0002c9f0       __report_securityfailureEx 000000018002d9f0 f   MSVCRT:gs_report.obj
 0001:0002cafe       strcmp                     000000018002dafe f   MSVCRT:MSVCR110.dll
 0001:0002cb04       __GSHandlerCheck           000000018002db04 f   MSVCRT:gshandler.obj
 0001:0002cb24       __GSHandlerCheckCommon     000000018002db24 f   MSVCRT:gshandler.obj
 0001:0002cba0       __security_check_cookie    000000018002dba0 f   MSVCRT:amdsecgs.obj
 0001:0002cbc0       memset                     000000018002dbc0 f   MSVCRT:MSVCR110.dll
 0001:0002cbc6       strlen                     000000018002dbc6 f   MSVCRT:MSVCR110.dll
 0001:0002cbcc       memcpy                     000000018002dbcc f   MSVCRT:MSVCR110.dll
 0001:0002cbd2       strcat                     000000018002dbd2 f   MSVCRT:MSVCR110.dll
 0001:0002cbd8       sprintf                    000000018002dbd8 f   MSVCRT:MSVCR110.dll
 0001:0002cbde       free                       000000018002dbde f   MSVCRT:MSVCR110.dll
 0001:0002cbe4       malloc                     000000018002dbe4 f   MSVCRT:MSVCR110.dll
 0001:0002cc4c       NtCurrentTeb               000000018002dc4c f i MSVCRT:crtdll.obj
 0001:0002cc58       _CRT_INIT                  000000018002dc58 f   MSVCRT:crtdll.obj
 0001:0002cea4       _DllMainCRTStartup         000000018002dea4 f   MSVCRT:crtdll.obj
 0001:0002d01a       __crt_debugger_hook        000000018002e01a f   MSVCRT:MSVCR110.dll
 0001:0002d020       __crtUnhandledException    000000018002e020 f   MSVCRT:MSVCR110.dll
 0001:0002d026       __crtTerminateProcess      000000018002e026 f   MSVCRT:MSVCR110.dll
 0001:0002d02c       __crtCaptureCurrentContext 000000018002e02c f   MSVCRT:MSVCR110.dll
 0001:0002d032       __crtCapturePreviousContext 000000018002e032 f   MSVCRT:MSVCR110.dll
 0001:0002d038       __CppXcptFilter            000000018002e038 f   MSVCRT:MSVCR110.dll
 0001:0002d03e       _amsg_exit                 000000018002e03e f   MSVCRT:MSVCR110.dll
 0001:0002d050       _FindPESection             000000018002e050 f   MSVCRT:pesect.obj
 0001:0002d0a0       _IsNonwritableInCurrentImage 000000018002e0a0 f   MSVCRT:pesect.obj
 0001:0002d0f0       _ValidateImageBase         000000018002e0f0 f   MSVCRT:pesect.obj
 0001:0002d120       __atonexitinit             000000018002e120 f   MSVCRT:atonexit.obj
 0001:0002d170       _onexit                    000000018002e170 f   MSVCRT:atonexit.obj
 0001:0002d220       atexit                     000000018002e220 f   MSVCRT:atonexit.obj
 0001:0002d238       __security_init_cookie     000000018002e238 f   MSVCRT:gs_support.obj
 0001:0002d2f0       DllMain                    000000018002e2f0 f   MSVCRT:dllmain.obj
 0001:0002d314       _malloc_crt                000000018002e314 f   MSVCRT:MSVCR110.dll
 0001:0002d31c       _RTC_Initialize            000000018002e31c f   MSVCRT:initsect.obj
 0001:0002d354       _RTC_Terminate             000000018002e354 f   MSVCRT:initsect.obj
 0001:0002d38c       _initterm                  000000018002e38c f   MSVCRT:MSVCR110.dll
 0001:0002d392       _initterm_e                000000018002e392 f   MSVCRT:MSVCR110.dll
 0001:0002d398       __clean_type_info_names    000000018002e398 f   MSVCRT:tncleanup.obj
 0001:0002d3a4       __C_specific_handler       000000018002e3a4 f   MSVCRT:MSVCR110.dll
 0001:0002d3aa       _lock                      000000018002e3aa f   MSVCRT:MSVCR110.dll
 0001:0002d3b0       _unlock                    000000018002e3b0 f   MSVCRT:MSVCR110.dll
 0001:0002d3b6       _calloc_crt                000000018002e3b6 f   MSVCRT:MSVCR110.dll
 0001:0002d3bc       __dllonexit                000000018002e3bc f   MSVCRT:MSVCR110.dll
 0001:0002d3c2       __clean_type_info_names_internal 000000018002e3c2 f   MSVCRT:MSVCR110.dll
 0001:0002d3c8       IsDebuggerPresent          000000018002e3c8 f   kernel32:KERNEL32.dll
 0001:0002d3ce       IsProcessorFeaturePresent  000000018002e3ce f   kernel32:KERNEL32.dll
 0001:0002d3d4       EncodePointer              000000018002e3d4 f   kernel32:KERNEL32.dll
 0001:0002d3da       DecodePointer              000000018002e3da f   kernel32:KERNEL32.dll
 0001:0002d3e0       QueryPerformanceCounter    000000018002e3e0 f   kernel32:KERNEL32.dll
 0001:0002d3e6       GetCurrentThreadId         000000018002e3e6 f   kernel32:KERNEL32.dll
 0001:0002d3ec       GetSystemTimeAsFileTime    000000018002e3ec f   kernel32:KERNEL32.dll
 0001:0002d3f2       GetTickCount64             000000018002e3f2 f   kernel32:KERNEL32.dll
 0001:0002d3f8       DisableThreadLibraryCalls  000000018002e3f8 f   kernel32:KERNEL32.dll
 0002:00000000       __imp_GetTickCount64       000000018002f000     kernel32:KERNEL32.dll
 0002:00000008       __imp_GetSystemTimeAsFileTime 000000018002f008     kernel32:KERNEL32.dll
 0002:00000010       __imp_GetCurrentThreadId   000000018002f010     kernel32:KERNEL32.dll
 0002:00000018       __imp_QueryPerformanceCounter 000000018002f018     kernel32:KERNEL32.dll
 0002:00000020       __imp_DecodePointer        000000018002f020     kernel32:KERNEL32.dll
 0002:00000028       __imp_EncodePointer        000000018002f028     kernel32:KERNEL32.dll
 0002:00000030       __imp_IsProcessorFeaturePresent 000000018002f030     kernel32:KERNEL32.dll
 0002:00000038       __imp_IsDebuggerPresent    000000018002f038     kernel32:KERNEL32.dll
 0002:00000040       __imp_DisableThreadLibraryCalls 000000018002f040     kernel32:KERNEL32.dll
 0002:00000048       \177KERNEL32_NULL_THUNK_DATA 000000018002f048     kernel32:KERNEL32.dll
 0002:00000050       __imp___clean_type_info_names_internal 000000018002f050     MSVCRT:MSVCR110.dll
 0002:00000058       __imp__onexit              000000018002f058     MSVCRT:MSVCR110.dll
 0002:00000060       __imp___dllonexit          000000018002f060     MSVCRT:MSVCR110.dll
 0002:00000068       __imp__calloc_crt          000000018002f068     MSVCRT:MSVCR110.dll
 0002:00000070       __imp__unlock              000000018002f070     MSVCRT:MSVCR110.dll
 0002:00000078       __imp__lock                000000018002f078     MSVCRT:MSVCR110.dll
 0002:00000080       __imp___C_specific_handler 000000018002f080     MSVCRT:MSVCR110.dll
 0002:00000088       __imp__initterm_e          000000018002f088     MSVCRT:MSVCR110.dll
 0002:00000090       __imp__initterm            000000018002f090     MSVCRT:MSVCR110.dll
 0002:00000098       __imp__malloc_crt          000000018002f098     MSVCRT:MSVCR110.dll
 0002:000000a0       __imp__amsg_exit           000000018002f0a0     MSVCRT:MSVCR110.dll
 0002:000000a8       __imp___CppXcptFilter      000000018002f0a8     MSVCRT:MSVCR110.dll
 0002:000000b0       __imp___crtCapturePreviousContext 000000018002f0b0     MSVCRT:MSVCR110.dll
 0002:000000b8       __imp___crtCaptureCurrentContext 000000018002f0b8     MSVCRT:MSVCR110.dll
 0002:000000c0       __imp___crtTerminateProcess 000000018002f0c0     MSVCRT:MSVCR110.dll
 0002:000000c8       __imp___crtUnhandledException 000000018002f0c8     MSVCRT:MSVCR110.dll
 0002:000000d0       __imp___crt_debugger_hook  000000018002f0d0     MSVCRT:MSVCR110.dll
 0002:000000d8       __imp_malloc               000000018002f0d8     MSVCRT:MSVCR110.dll
 0002:000000e0       __imp_free                 000000018002f0e0     MSVCRT:MSVCR110.dll
 0002:000000e8       __imp_sprintf              000000018002f0e8     MSVCRT:MSVCR110.dll
 0002:000000f0       __imp_strcat               000000018002f0f0     MSVCRT:MSVCR110.dll
 0002:000000f8       __imp_memcpy               000000018002f0f8     MSVCRT:MSVCR110.dll
 0002:00000100       __imp_strlen               000000018002f100     MSVCRT:MSVCR110.dll
 0002:00000108       __imp_memset               000000018002f108     MSVCRT:MSVCR110.dll
 0002:00000110       __imp_strcmp               000000018002f110     MSVCRT:MSVCR110.dll
 0002:00000118       \177MSVCR110_NULL_THUNK_DATA 000000018002f118     MSVCRT:MSVCR110.dll
 0002:00000120       __imp_mexLock              000000018002f120     libmex:libmex.dll
 0002:00000128       __imp_mexErrMsgTxt         000000018002f128     libmex:libmex.dll
 0002:00000130       __imp_mexIsLocked          000000018002f130     libmex:libmex.dll
 0002:00000138       __imp_mexUnlock            000000018002f138     libmex:libmex.dll
 0002:00000140       __imp_mexMakeArrayPersistent 000000018002f140     libmex:libmex.dll
 0002:00000148       __imp_mexCallMATLAB        000000018002f148     libmex:libmex.dll
 0002:00000150       __imp_mexWarnMsgTxt        000000018002f150     libmex:libmex.dll
 0002:00000158       \177libmex_NULL_THUNK_DATA 000000018002f158     libmex:libmex.dll
 0002:00000160       __imp_muDoubleScalarIsNaN  000000018002f160     libmwmathutil:libmwmathutil.dll
 0002:00000168       \177libmwmathutil_NULL_THUNK_DATA 000000018002f168     libmwmathutil:libmwmathutil.dll
 0002:00000170       __imp_mxGetN               000000018002f170     libmx:libmx.dll
 0002:00000178       __imp_mxIsComplex          000000018002f178     libmx:libmx.dll
 0002:00000180       __imp_mxIsNumeric          000000018002f180     libmx:libmx.dll
 0002:00000188       __imp_mxGetClassID         000000018002f188     libmx:libmx.dll
 0002:00000190       __imp_mxGetM               000000018002f190     libmx:libmx.dll
 0002:00000198       __imp_mxCalloc             000000018002f198     libmx:libmx.dll
 0002:000001a0       __imp_mxCreateStructMatrix_730 000000018002f1a0     libmx:libmx.dll
 0002:000001a8       __imp_mxCreateCellMatrix_730 000000018002f1a8     libmx:libmx.dll
 0002:000001b0       __imp_mxCreateString       000000018002f1b0     libmx:libmx.dll
 0002:000001b8       __imp_mxCreateDoubleScalar 000000018002f1b8     libmx:libmx.dll
 0002:000001c0       __imp_mxSetField_730       000000018002f1c0     libmx:libmx.dll
 0002:000001c8       __imp_mxDuplicateArray     000000018002f1c8     libmx:libmx.dll
 0002:000001d0       __imp_mxGetString_730      000000018002f1d0     libmx:libmx.dll
 0002:000001d8       __imp_mxCreateDoubleMatrix_730 000000018002f1d8     libmx:libmx.dll
 0002:000001e0       __imp_mxGetScalar          000000018002f1e0     libmx:libmx.dll
 0002:000001e8       __imp_mxGetPr              000000018002f1e8     libmx:libmx.dll
 0002:000001f0       __imp_mxIsChar             000000018002f1f0     libmx:libmx.dll
 0002:000001f8       __imp_mxDestroyArray       000000018002f1f8     libmx:libmx.dll
 0002:00000200       \177libmx_NULL_THUNK_DATA  000000018002f200     libmx:libmx.dll
 0002:00000208       __imp_utMalloc             000000018002f208     libut:libut.dll
 0002:00000210       __imp_utFree               000000018002f210     libut:libut.dll
 0002:00000218       \177libut_NULL_THUNK_DATA  000000018002f218     libut:libut.dll
 0002:00000220       __imp_sf_debug_terminate   000000018002f220     sf_runtime:sf_runtime.dll
 0002:00000228       __imp_call_sf_machine_global_method_dispatcher 000000018002f228     sf_runtime:sf_runtime.dll
 0002:00000230       __imp_callMdlMethodAndReportError 000000018002f230     sf_runtime:sf_runtime.dll
 0002:00000238       __imp_cv_eml_init_switch   000000018002f238     sf_runtime:sf_runtime.dll
 0002:00000240       __imp_cv_eml_init_while    000000018002f240     sf_runtime:sf_runtime.dll
 0002:00000248       __imp_sim_mode_is_external 000000018002f248     sf_runtime:sf_runtime.dll
 0002:00000250       __imp_sf_debug_integer_check 000000018002f250     sf_runtime:sf_runtime.dll
 0002:00000258       __imp_sf_debug_eml_data_array_bounds_error_check 000000018002f258     sf_runtime:sf_runtime.dll
 0002:00000260       __imp_cv_eml_init_mcdc     000000018002f260     sf_runtime:sf_runtime.dll
 0002:00000268       __imp_cv_eml_init_if       000000018002f268     sf_runtime:sf_runtime.dll
 0002:00000270       __imp_sf_mex_emlrtNameCapturePostProcessR2012a 000000018002f270     sf_runtime:sf_runtime.dll
 0002:00000278       __imp_sf_mex_duplicatearraysafe 000000018002f278     sf_runtime:sf_runtime.dll
 0002:00000280       __imp_sf_mex_createstruct  000000018002f280     sf_runtime:sf_runtime.dll
 0002:00000288       __imp_sf_debug_create_debug_instance_struct 000000018002f288     sf_runtime:sf_runtime.dll
 0002:00000290       __imp_sf_debug_cv_init_state 000000018002f290     sf_runtime:sf_runtime.dll
 0002:00000298       __imp_sf_debug_cv_init_chart 000000018002f298     sf_runtime:sf_runtime.dll
 0002:000002a0       __imp_sf_debug_cv_init_trans 000000018002f2a0     sf_runtime:sf_runtime.dll
 0002:000002a8       __imp_sf_debug_data_range_wrapper 000000018002f2a8     sf_runtime:sf_runtime.dll
 0002:000002b0       __imp_sf_debug_for_loop_vector_check 000000018002f2b0     sf_runtime:sf_runtime.dll
 0002:000002b8       __imp_sf_debug_set_chart_substate_count 000000018002f2b8     sf_runtime:sf_runtime.dll
 0002:000002c0       __imp_sf_debug_set_chart_decomposition 000000018002f2c0     sf_runtime:sf_runtime.dll
 0002:000002c8       __imp_sf_debug_set_chart_state_info 000000018002f2c8     sf_runtime:sf_runtime.dll
 0002:000002d0       __imp_sf_debug_set_chart_event_thresholds 000000018002f2d0     sf_runtime:sf_runtime.dll
 0002:000002d8       __imp_sf_debug_set_chart_disable_implicit_casting 000000018002f2d8     sf_runtime:sf_runtime.dll
 0002:000002e0       __imp_sf_debug_set_instance_data_value_ptr 000000018002f2e0     sf_runtime:sf_runtime.dll
 0002:000002e8       __imp_sf_debug_symbol_scope_add_eml_importable 000000018002f2e8     sf_runtime:sf_runtime.dll
 0002:000002f0       __imp_sf_debug_symbol_scope_add_eml 000000018002f2f0     sf_runtime:sf_runtime.dll
 0002:000002f8       __imp_sf_debug_symbol_scope_pop 000000018002f2f8     sf_runtime:sf_runtime.dll
 0002:00000300       __imp_sf_debug_symbol_scope_push_eml 000000018002f300     sf_runtime:sf_runtime.dll
 0002:00000308       __imp_sf_clear_error_manager_info 000000018002f308     sf_runtime:sf_runtime.dll
 0002:00000310       __imp_sf_mex_addfield      000000018002f310     sf_runtime:sf_runtime.dll
 0002:00000318       __imp_sf_mex_error_direct_call 000000018002f318     sf_runtime:sf_runtime.dll
 0002:00000320       __imp_sf_debug_symbol_scope_push 000000018002f320     sf_runtime:sf_runtime.dll
 0002:00000328       __imp_sf_debug_set_chart_data_compiled_props 000000018002f328     sf_runtime:sf_runtime.dll
 0002:00000330       __imp_sf_debug_set_chart_data_props 000000018002f330     sf_runtime:sf_runtime.dll
 0002:00000338       __imp_sf_debug_check_for_state_inconsistency 000000018002f338     sf_runtime:sf_runtime.dll
 0002:00000340       __imp_sf_debug_reset_current_state_configuration 000000018002f340     sf_runtime:sf_runtime.dll
 0002:00000348       __imp_cv_eml_init_for      000000018002f348     sf_runtime:sf_runtime.dll
 0002:00000350       __imp_cv_eml_init_fcn      000000018002f350     sf_runtime:sf_runtime.dll
 0002:00000358       __imp_cv_eml_init_script   000000018002f358     sf_runtime:sf_runtime.dll
 0002:00000360       __imp_cv_eml_eval          000000018002f360     sf_runtime:sf_runtime.dll
 0002:00000368       __imp_eml_debug_line_call  000000018002f368     sf_runtime:sf_runtime.dll
 0002:00000370       __imp_sf_debug_call        000000018002f370     sf_runtime:sf_runtime.dll
 0002:00000378       __imp_sf_debug_initialize_chart 000000018002f378     sf_runtime:sf_runtime.dll
 0002:00000380       __imp_sf_mex_decode_encoded_mx_struct_array 000000018002f380     sf_runtime:sf_runtime.dll
 0002:00000388       __imp_sf_mex_import        000000018002f388     sf_runtime:sf_runtime.dll
 0002:00000390       __imp_sf_mex_destroy       000000018002f390     sf_runtime:sf_runtime.dll
 0002:00000398       __imp_sf_mex_dup           000000018002f398     sf_runtime:sf_runtime.dll
 0002:000003a0       __imp_sf_mex_assign        000000018002f3a0     sf_runtime:sf_runtime.dll
 0002:000003a8       __imp_sf_mex_getcell       000000018002f3a8     sf_runtime:sf_runtime.dll
 0002:000003b0       __imp_sf_mex_setcell       000000018002f3b0     sf_runtime:sf_runtime.dll
 0002:000003b8       __imp_sf_mex_createcellmatrix 000000018002f3b8     sf_runtime:sf_runtime.dll
 0002:000003c0       __imp_sf_mex_create        000000018002f3c0     sf_runtime:sf_runtime.dll
 0002:000003c8       __imp_sf_mex_error_message 000000018002f3c8     sf_runtime:sf_runtime.dll
 0002:000003d0       __imp_sf_mex_call_matlab   000000018002f3d0     sf_runtime:sf_runtime.dll
 0002:000003d8       __imp_sf_get_time          000000018002f3d8     sf_runtime:sf_runtime.dll
 0002:000003e0       __imp_sf_set_rtw_dwork_info 000000018002f3e0     sf_runtime:sf_runtime.dll
 0002:000003e8       __imp_sf_clear_rtw_identifier 000000018002f3e8     sf_runtime:sf_runtime.dll
 0002:000003f0       __imp_sf_mex_listen_for_ctrl_c 000000018002f3f0     sf_runtime:sf_runtime.dll
 0002:000003f8       __imp_sim_mode_is_rtw_gen  000000018002f3f8     sf_runtime:sf_runtime.dll
 0002:00000400       __imp_sf_mark_chart_expressionable_inputs 000000018002f400     sf_runtime:sf_runtime.dll
 0002:00000408       __imp_sf_mark_chart_reusable_outputs 000000018002f408     sf_runtime:sf_runtime.dll
 0002:00000410       __imp_sf_is_chart_inlinable 000000018002f410     sf_runtime:sf_runtime.dll
 0002:00000418       __imp_sf_update_buildInfo  000000018002f418     sf_runtime:sf_runtime.dll
 0002:00000420       __imp_sf_rtw_info_uint_prop 000000018002f420     sf_runtime:sf_runtime.dll
 0002:00000428       __imp_sf_debug_set_machine_data_thresholds 000000018002f428     sf_runtime:sf_runtime.dll
 0002:00000430       __imp_sf_debug_set_machine_event_thresholds 000000018002f430     sf_runtime:sf_runtime.dll
 0002:00000438       __imp_sf_debug_initialize_machine 000000018002f438     sf_runtime:sf_runtime.dll
 0002:00000440       __imp_sf_debug_api         000000018002f440     sf_runtime:sf_runtime.dll
 0002:00000448       __imp_sf_load_rtw_optimization_info 000000018002f448     sf_runtime:sf_runtime.dll
 0002:00000450       \177sf_runtime_NULL_THUNK_DATA 000000018002f450     sf_runtime:sf_runtime.dll
 0002:00000458       __xc_a                     000000018002f458     MSVCRT:cinitexe.obj
 0002:00000460       __xc_z                     000000018002f460     MSVCRT:cinitexe.obj
 0002:00000468       __xi_a                     000000018002f468     MSVCRT:cinitexe.obj
 0002:00000480       __xi_z                     000000018002f480     MSVCRT:cinitexe.obj
 0002:00000490       __real@419d049f5c000000    000000018002f490     continental_test_sfun.obj
 0002:00000498       __real@41c900e78a000000    000000018002f498     continental_test_sfun.obj
 0002:000004a0       __real@41d6c398ff400000    000000018002f4a0     continental_test_sfun.obj
 0002:000004a8       __real@41da76f689c00000    000000018002f4a8     continental_test_sfun.obj
 0002:000004b0       __real@41e083b39a000000    000000018002f4b0     continental_test_sfun.obj
 0002:000004b8       __real@41e2431f3d800000    000000018002f4b8     continental_test_sfun.obj
 0002:000004c0       __real@41e64b98f4600000    000000018002f4c0     continental_test_sfun.obj
 0002:000004c8       __real@41e695dff8600000    000000018002f4c8     continental_test_sfun.obj
 0002:000004d0       __real@41e6f1cbdd000000    000000018002f4d0     continental_test_sfun.obj
 0002:000004d8       __real@41e83813f2a00000    000000018002f4d8     continental_test_sfun.obj
 0002:000004e0       __real@41ed0ff505000000    000000018002f4e0     continental_test_sfun.obj
 0002:000004e8       __real@41ed9aab1ba00000    000000018002f4e8     continental_test_sfun.obj
 0002:000004f0       __real@41eda5398c800000    000000018002f4f0     continental_test_sfun.obj
 0002:000004f8       __real@41edcf5b43c00000    000000018002f4f8     continental_test_sfun.obj
 0002:00000500       __real@41ee9fdec9600000    000000018002f500     continental_test_sfun.obj
 0002:00000508       __real@41effd8888e00000    000000018002f508     continental_test_sfun.obj
 0002:00000510       __real@3ff0000000000000    000000018002f510     c1_continental_test.obj
 0002:00000518       __real@4000000000000000    000000018002f518     c1_continental_test.obj
 0002:00000520       __real@4008000000000000    000000018002f520     c1_continental_test.obj
 0002:00000528       __real@4010000000000000    000000018002f528     c1_continental_test.obj
 0002:00000530       __real@4020000000000000    000000018002f530     c1_continental_test.obj
 0002:00000538       __real@4024000000000000    000000018002f538     c1_continental_test.obj
 0002:00000540       __real@4146b17080000000    000000018002f540     c1_continental_test.obj
 0002:00000548       __real@41dd59b15b400000    000000018002f548     c1_continental_test.obj
 0002:00000550       __real@41e462b702200000    000000018002f550     c1_continental_test.obj
 0002:00000558       __real@41e950cb66000000    000000018002f558     c1_continental_test.obj
 0002:00000560       __real@0000000000000000    000000018002f560     c2_continental_test.obj
 0002:00000568       __real@4049000000000000    000000018002f568     c2_continental_test.obj
 0002:00000570       __real@41c009f562800000    000000018002f570     c2_continental_test.obj
 0002:00000578       __real@41c1992142000000    000000018002f578     c2_continental_test.obj
 0002:00000580       __real@41e9cf25bfa00000    000000018002f580     c2_continental_test.obj
 0002:00000588       __real@41ec0074a4e00000    000000018002f588     c2_continental_test.obj
 0002:00000590       __xmm@80000000000000008000000000000000 000000018002f590     c2_continental_test.obj
 0002:000005a0       __real@41c89fc68b000000    000000018002f5a0     c3_continental_test.obj
 0002:000005a8       __real@41e5813db2200000    000000018002f5a8     c3_continental_test.obj
 0002:000005b0       __real@41ecf89839000000    000000018002f5b0     c3_continental_test.obj
 0002:000005b8       __real@41eee3dc55e00000    000000018002f5b8     c3_continental_test.obj
 0002:000005c0       __real@c000000000000000    000000018002f5c0     c3_continental_test.obj
 0002:000005c8       __real@c056800000000000    000000018002f5c8     c3_continental_test.obj
 0002:000005d0       __real@41b38a8379000000    000000018002f5d0     c4_continental_test.obj
 0002:000005d8       __real@41e37c2164600000    000000018002f5d8     c4_continental_test.obj
 0002:000005e0       __real@41e51528c2a00000    000000018002f5e0     c4_continental_test.obj
 0002:000005e8       __real@41ecc7dc8f000000    000000018002f5e8     c4_continental_test.obj
 0002:000005f0       __real@c058c00000000000    000000018002f5f0     c4_continental_test.obj
 0002:000005f8       __real@41c9566fcf800000    000000018002f5f8     c5_continental_test.obj
 0002:00000600       __real@41d2585ea9c00000    000000018002f600     c5_continental_test.obj
 0002:00000608       __real@41e138f727e00000    000000018002f608     c5_continental_test.obj
 0002:00000610       __real@41e6b264d2400000    000000018002f610     c5_continental_test.obj
 0002:00000620       DYNAMIC_DIMENSION_DEF      000000018002f620     continental_test_sfun_registry.obj
 0002:00000640       _ssBadLevel2InputAccessMsg 000000018002f640     continental_test_sfun_registry.obj
 0002:000007d0       _ssBadLevel2DirectFeedMsg  000000018002f7d0     continental_test_sfun_registry.obj
 0002:00000910       _ssBadLevel2DirectFeedSolutionMsg 000000018002f910     continental_test_sfun_registry.obj
 0002:00000980       _ssBadLevel2ZeroDirectFeedMsg 000000018002f980     continental_test_sfun_registry.obj
 0002:00000ac0       _ssBadLevel2ZeroDirectFeedMsg2 000000018002fac0     continental_test_sfun_registry.obj
 0002:00000ba8       __real@41602cbca0000000    000000018002fba8     continental_test_sfun_registry.obj
 0002:00000bb0       __real@bff0000000000000    000000018002fbb0     continental_test_sfun_registry.obj
 0002:00000bc8       _pDefaultRawDllMain        000000018002fbc8     MSVCRT:crtdll.obj
 0002:00000bc8       _pRawDllMain               000000018002fbc8     MSVCRT:crtdll.obj
 0002:00000bd0       ?ProcessDetach@NativeDll@<CrtImplementationDetails>@@0IB 000000018002fbd0     MSVCRT:initsect.obj
 0002:00000bd4       ?ProcessAttach@NativeDll@<CrtImplementationDetails>@@0IB 000000018002fbd4     MSVCRT:initsect.obj
 0002:00000bd8       ?ThreadAttach@NativeDll@<CrtImplementationDetails>@@0IB 000000018002fbd8     MSVCRT:initsect.obj
 0002:00000bdc       ?ThreadDetach@NativeDll@<CrtImplementationDetails>@@0IB 000000018002fbdc     MSVCRT:initsect.obj
 0002:00000be0       ?ProcessVerifier@NativeDll@<CrtImplementationDetails>@@0IB 000000018002fbe0     MSVCRT:initsect.obj
 0002:00000be4       ?value@?$integral_constant@_N$0A@@std@@2_NB 000000018002fbe4     MSVCRT:tncleanup.obj
 0002:00000be5       ?value@?$integral_constant@_N$00@std@@2_NB 000000018002fbe5     MSVCRT:tncleanup.obj
 0002:00000be8       ?value@?$_Sizeof@U_Nil@std@@U12@U12@U12@U12@U12@U12@U12@@std@@2_KB 000000018002fbe8     MSVCRT:tncleanup.obj
 0002:00000bf0       _load_config_used          000000018002fbf0     MSVCRT:loadcfg.obj
 0002:00000c60       __rtc_iaa                  000000018002fc60     MSVCRT:initsect.obj
 0002:00000c68       __rtc_izz                  000000018002fc68     MSVCRT:initsect.obj
 0002:00000c70       __rtc_taa                  000000018002fc70     MSVCRT:initsect.obj
 0002:00000c78       __rtc_tzz                  000000018002fc78     MSVCRT:initsect.obj
 0002:00001964       __IMPORT_DESCRIPTOR_sf_runtime 0000000180030964     sf_runtime:sf_runtime.dll
 0002:00001978       __IMPORT_DESCRIPTOR_libmx  0000000180030978     libmx:libmx.dll
 0002:0000198c       __IMPORT_DESCRIPTOR_libmex 000000018003098c     libmex:libmex.dll
 0002:000019a0       __IMPORT_DESCRIPTOR_libut  00000001800309a0     libut:libut.dll
 0002:000019b4       __IMPORT_DESCRIPTOR_libmwmathutil 00000001800309b4     libmwmathutil:libmwmathutil.dll
 0002:000019c8       __IMPORT_DESCRIPTOR_MSVCR110 00000001800309c8     MSVCRT:MSVCR110.dll
 0002:000019dc       __IMPORT_DESCRIPTOR_KERNEL32 00000001800309dc     kernel32:KERNEL32.dll
 0002:000019f0       __NULL_IMPORT_DESCRIPTOR   00000001800309f0     sf_runtime:sf_runtime.dll
 0003:00008838       DYNAMIC_DIMENSION          000000018003a838     continental_test_sfun_registry.obj
 0003:000094c0       __security_cookie          000000018003b4c0     MSVCRT:gs_cookie.obj
 0003:000094c8       __security_cookie_complement 000000018003b4c8     MSVCRT:gs_cookie.obj
 0003:000094d0       _fltused                   000000018003b4d0     MSVCRT:dllsupp.obj
 0003:000094d4       __native_dllmain_reason    000000018003b4d4     MSVCRT:natstart.obj
 0003:00009548       sfGlobalDebugInstanceStruct 000000018003b548     continental_test_sfun_registry.obj
 0003:00009b98       ?__type_info_root_node@@3U__type_info_node@@A 000000018003bb98     MSVCRT:tncleanup.obj
 0003:00009ba8       _continental_testMachineNumber_ 000000018003bba8     <common>
 0003:00009bb0       __native_startup_lock      000000018003bbb0     <common>
 0003:00009bb8       __native_startup_state     000000018003bbb8     <common>
 0003:00009bc0       __onexitend                000000018003bbc0     <common>
 0003:00009bc8       __onexitbegin              000000018003bbc8     <common>
 0003:00009bd0       __dyn_tls_init_callback    000000018003bbd0     <common>

 entry point at        0001:0002cea4

 Static symbols

 0000:00000000       .debug$S                   0000000180000000     kernel32:KERNEL32.dll
 0000:00000000       .debug$S                   0000000180000000     kernel32:KERNEL32.dll
 0000:00000000       .debug$S                   0000000180000000     kernel32:KERNEL32.dll
 0000:00000000       .debug$S                   0000000180000000     kernel32:KERNEL32.dll
 0000:00000000       .debug$S                   0000000180000000     kernel32:KERNEL32.dll
 0000:00000000       .debug$S                   0000000180000000     kernel32:KERNEL32.dll
 0000:00000000       .debug$S                   0000000180000000     kernel32:KERNEL32.dll
 0000:00000000       .debug$S                   0000000180000000     kernel32:KERNEL32.dll
 0000:00000000       .debug$S                   0000000180000000     kernel32:KERNEL32.dll
 0000:00000000       .debug$S                   0000000180000000     sf_runtime:sf_runtime.dll
 0000:00000000       .debug$S                   0000000180000000     MSVCRT:MSVCR110.dll
 0000:00000000       .debug$S                   0000000180000000     MSVCRT:MSVCR110.dll
 0000:00000000       .debug$S                   0000000180000000     MSVCRT:MSVCR110.dll
 0000:00000000       .debug$S                   0000000180000000     MSVCRT:MSVCR110.dll
 0000:00000000       .debug$S                   0000000180000000     MSVCRT:MSVCR110.dll
 0000:00000000       .debug$S                   0000000180000000     MSVCRT:MSVCR110.dll
 0000:00000000       .debug$S                   0000000180000000     MSVCRT:MSVCR110.dll
 0000:00000000       .debug$S                   0000000180000000     MSVCRT:MSVCR110.dll
 0000:00000000       .debug$S                   0000000180000000     MSVCRT:MSVCR110.dll
 0000:00000000       .debug$S                   0000000180000000     MSVCRT:MSVCR110.dll
 0000:00000000       .debug$S                   0000000180000000     MSVCRT:MSVCR110.dll
 0000:00000000       .debug$S                   0000000180000000     MSVCRT:MSVCR110.dll
 0000:00000000       .debug$S                   0000000180000000     MSVCRT:MSVCR110.dll
 0000:00000000       .debug$S                   0000000180000000     MSVCRT:MSVCR110.dll
 0000:00000000       .debug$S                   0000000180000000     MSVCRT:MSVCR110.dll
 0000:00000000       .debug$S                   0000000180000000     MSVCRT:MSVCR110.dll
 0000:00000000       .debug$S                   0000000180000000     MSVCRT:MSVCR110.dll
 0000:00000000       .debug$S                   0000000180000000     MSVCRT:MSVCR110.dll
 0000:00000000       .debug$S                   0000000180000000     MSVCRT:MSVCR110.dll
 0000:00000000       .debug$S                   0000000180000000     MSVCRT:MSVCR110.dll
 0000:00000000       .debug$S                   0000000180000000     MSVCRT:MSVCR110.dll
 0000:00000000       .debug$S                   0000000180000000     MSVCRT:MSVCR110.dll
 0000:00000000       .debug$S                   0000000180000000     MSVCRT:MSVCR110.dll
 0000:00000000       .debug$S                   0000000180000000     MSVCRT:MSVCR110.dll
 0000:00000000       .debug$S                   0000000180000000     MSVCRT:MSVCR110.dll
 0000:00000000       .debug$S                   0000000180000000     sf_runtime:sf_runtime.dll
 0000:00000000       .debug$S                   0000000180000000     sf_runtime:sf_runtime.dll
 0000:00000000       .debug$S                   0000000180000000     sf_runtime:sf_runtime.dll
 0000:00000000       .debug$S                   0000000180000000     sf_runtime:sf_runtime.dll
 0000:00000000       .debug$S                   0000000180000000     sf_runtime:sf_runtime.dll
 0000:00000000       .debug$S                   0000000180000000     sf_runtime:sf_runtime.dll
 0000:00000000       .debug$S                   0000000180000000     sf_runtime:sf_runtime.dll
 0000:00000000       .debug$S                   0000000180000000     sf_runtime:sf_runtime.dll
 0000:00000000       .debug$S                   0000000180000000     sf_runtime:sf_runtime.dll
 0000:00000000       .debug$S                   0000000180000000     sf_runtime:sf_runtime.dll
 0000:00000000       .debug$S                   0000000180000000     libmx:libmx.dll
 0000:00000000       .debug$S                   0000000180000000     sf_runtime:sf_runtime.dll
 0000:00000000       .debug$S                   0000000180000000     libmx:libmx.dll
 0000:00000000       .debug$S                   0000000180000000     sf_runtime:sf_runtime.dll
 0000:00000000       .debug$S                   0000000180000000     libmx:libmx.dll
 0000:00000000       .debug$S                   0000000180000000     sf_runtime:sf_runtime.dll
 0000:00000000       .debug$S                   0000000180000000     libmx:libmx.dll
 0000:00000000       .debug$S                   0000000180000000     sf_runtime:sf_runtime.dll
 0000:00000000       .debug$S                   0000000180000000     libmx:libmx.dll
 0000:00000000       .debug$S                   0000000180000000     sf_runtime:sf_runtime.dll
 0000:00000000       .debug$S                   0000000180000000     libmx:libmx.dll
 0000:00000000       .debug$S                   0000000180000000     sf_runtime:sf_runtime.dll
 0000:00000000       .debug$S                   0000000180000000     libmx:libmx.dll
 0000:00000000       .debug$S                   0000000180000000     sf_runtime:sf_runtime.dll
 0000:00000000       .debug$S                   0000000180000000     sf_runtime:sf_runtime.dll
 0000:00000000       .debug$S                   0000000180000000     sf_runtime:sf_runtime.dll
 0000:00000000       .debug$S                   0000000180000000     sf_runtime:sf_runtime.dll
 0000:00000000       .debug$S                   0000000180000000     sf_runtime:sf_runtime.dll
 0000:00000000       .debug$S                   0000000180000000     sf_runtime:sf_runtime.dll
 0000:00000000       .debug$S                   0000000180000000     sf_runtime:sf_runtime.dll
 0000:00000000       .debug$S                   0000000180000000     sf_runtime:sf_runtime.dll
 0000:00000000       .debug$S                   0000000180000000     sf_runtime:sf_runtime.dll
 0000:00000000       .debug$S                   0000000180000000     sf_runtime:sf_runtime.dll
 0000:00000000       .debug$S                   0000000180000000     sf_runtime:sf_runtime.dll
 0000:00000000       .debug$S                   0000000180000000     sf_runtime:sf_runtime.dll
 0000:00000000       .debug$S                   0000000180000000     sf_runtime:sf_runtime.dll
 0000:00000000       .debug$S                   0000000180000000     libmwmathutil:libmwmathutil.dll
 0000:00000000       .debug$S                   0000000180000000     sf_runtime:sf_runtime.dll
 0000:00000000       .debug$S                   0000000180000000     libut:libut.dll
 0000:00000000       .debug$S                   0000000180000000     libut:libut.dll
 0000:00000000       .debug$S                   0000000180000000     sf_runtime:sf_runtime.dll
 0000:00000000       .debug$S                   0000000180000000     libmex:libmex.dll
 0000:00000000       .debug$S                   0000000180000000     libmex:libmex.dll
 0000:00000000       .debug$S                   0000000180000000     libmex:libmex.dll
 0000:00000000       .debug$S                   0000000180000000     libmex:libmex.dll
 0000:00000000       .debug$S                   0000000180000000     libmex:libmex.dll
 0000:00000000       .debug$S                   0000000180000000     libmex:libmex.dll
 0000:00000000       .debug$S                   0000000180000000     libmex:libmex.dll
 0000:00000000       .debug$S                   0000000180000000     sf_runtime:sf_runtime.dll
 0000:00000000       .debug$S                   0000000180000000     libmx:libmx.dll
 0000:00000000       .debug$S                   0000000180000000     libmx:libmx.dll
 0000:00000000       .debug$S                   0000000180000000     libmx:libmx.dll
 0000:00000000       .debug$S                   0000000180000000     libmx:libmx.dll
 0000:00000000       .debug$S                   0000000180000000     libmx:libmx.dll
 0000:00000000       .debug$S                   0000000180000000     libmx:libmx.dll
 0000:00000000       .debug$S                   0000000180000000     libmx:libmx.dll
 0000:00000000       .debug$S                   0000000180000000     libmx:libmx.dll
 0000:00000000       .debug$S                   0000000180000000     libmx:libmx.dll
 0000:00000000       .debug$S                   0000000180000000     libmx:libmx.dll
 0000:00000000       .debug$S                   0000000180000000     libmx:libmx.dll
 0000:00000000       .debug$S                   0000000180000000     sf_runtime:sf_runtime.dll
 0000:00000000       .debug$S                   0000000180000000     sf_runtime:sf_runtime.dll
 0000:00000000       .debug$S                   0000000180000000     sf_runtime:sf_runtime.dll
 0000:00000000       .debug$S                   0000000180000000     sf_runtime:sf_runtime.dll
 0000:00000000       .debug$S                   0000000180000000     sf_runtime:sf_runtime.dll
 0000:00000000       .debug$S                   0000000180000000     sf_runtime:sf_runtime.dll
 0000:00000000       .debug$S                   0000000180000000     sf_runtime:sf_runtime.dll
 0000:00000000       .debug$S                   0000000180000000     sf_runtime:sf_runtime.dll
 0000:00000000       .debug$S                   0000000180000000     sf_runtime:sf_runtime.dll
 0000:00000000       .debug$S                   0000000180000000     sf_runtime:sf_runtime.dll
 0000:00000000       .debug$S                   0000000180000000     sf_runtime:sf_runtime.dll
 0000:00000000       .debug$S                   0000000180000000     sf_runtime:sf_runtime.dll
 0000:00000000       .debug$S                   0000000180000000     sf_runtime:sf_runtime.dll
 0000:00000000       .debug$S                   0000000180000000     sf_runtime:sf_runtime.dll
 0000:00000000       .debug$S                   0000000180000000     sf_runtime:sf_runtime.dll
 0000:00000000       .debug$S                   0000000180000000     sf_runtime:sf_runtime.dll
 0000:00000000       .debug$S                   0000000180000000     sf_runtime:sf_runtime.dll
 0000:00000000       .debug$S                   0000000180000000     sf_runtime:sf_runtime.dll
 0000:00000000       .debug$S                   0000000180000000     sf_runtime:sf_runtime.dll
 0000:00000000       .debug$S                   0000000180000000     sf_runtime:sf_runtime.dll
 0000:00000000       .debug$S                   0000000180000000     sf_runtime:sf_runtime.dll
 0000:00000000       .debug$S                   0000000180000000     sf_runtime:sf_runtime.dll
 0000:00000000       .debug$S                   0000000180000000     sf_runtime:sf_runtime.dll
 0000:00000000       .debug$S                   0000000180000000     sf_runtime:sf_runtime.dll
 0000:00000000       .debug$S                   0000000180000000     sf_runtime:sf_runtime.dll
 0000:00000000       .debug$S                   0000000180000000     sf_runtime:sf_runtime.dll
 0000:00000000       .debug$S                   0000000180000000     sf_runtime:sf_runtime.dll
 0000:00000000       .debug$S                   0000000180000000     sf_runtime:sf_runtime.dll
 0000:00000000       .debug$S                   0000000180000000     sf_runtime:sf_runtime.dll
 0000:00000000       .debug$S                   0000000180000000     sf_runtime:sf_runtime.dll
 0000:00000000       .debug$S                   0000000180000000     sf_runtime:sf_runtime.dll
 0000:00000000       .debug$S                   0000000180000000     sf_runtime:sf_runtime.dll
 0000:00000000       .debug$S                   0000000180000000     sf_runtime:sf_runtime.dll
 0000:00000000       .debug$S                   0000000180000000     sf_runtime:sf_runtime.dll
 0000:00000000       .debug$S                   0000000180000000     sf_runtime:sf_runtime.dll
 0000:00000000       .debug$S                   0000000180000000     sf_runtime:sf_runtime.dll
 0000:00000000       .debug$S                   0000000180000000     sf_runtime:sf_runtime.dll
 0001:00001620       initialize_c1_continental_test 0000000180002620 f   c1_continental_test.obj
 0001:00001670       initialize_params_c1_continental_test 0000000180002670 f   c1_continental_test.obj
 0001:00001680       enable_c1_continental_test 0000000180002680 f   c1_continental_test.obj
 0001:000016b0       disable_c1_continental_test 00000001800026b0 f   c1_continental_test.obj
 0001:000016e0       c1_update_debugger_state_c1_continental_test 00000001800026e0 f   c1_continental_test.obj
 0001:000016f0       get_sim_state_c1_continental_test 00000001800026f0 f   c1_continental_test.obj
 0001:000018f0       set_sim_state_c1_continental_test 00000001800028f0 f   c1_continental_test.obj
 0001:00001a40       finalize_c1_continental_test 0000000180002a40 f   c1_continental_test.obj
 0001:00001a50       sf_gateway_c1_continental_test 0000000180002a50 f   c1_continental_test.obj
 0001:00002830       initSimStructsc1_continental_test 0000000180003830 f   c1_continental_test.obj
 0001:00002840       init_script_number_translation 0000000180003840 f   c1_continental_test.obj
 0001:00002860       c1_sf_marshallOut          0000000180003860 f   c1_continental_test.obj
 0001:00002a40       c1_emlrt_marshallIn        0000000180003a40 f   c1_continental_test.obj
 0001:00002ab0       c1_b_emlrt_marshallIn      0000000180003ab0 f   c1_continental_test.obj
 0001:00002bb0       c1_sf_marshallIn           0000000180003bb0 f   c1_continental_test.obj
 0001:00002cf0       c1_b_sf_marshallOut        0000000180003cf0 f   c1_continental_test.obj
 0001:00002e30       c1_c_sf_marshallOut        0000000180003e30 f   c1_continental_test.obj
 0001:00002ee0       c1_c_emlrt_marshallIn      0000000180003ee0 f   c1_continental_test.obj
 0001:00002f70       c1_b_sf_marshallIn         0000000180003f70 f   c1_continental_test.obj
 0001:00003010       c1_e_emlrt_marshallIn      0000000180004010 f   c1_continental_test.obj
 0001:00003070       c1_f_emlrt_marshallIn      0000000180004070 f   c1_continental_test.obj
 0001:00003100       init_dsm_address_info      0000000180004100 f   c1_continental_test.obj
 0001:00003980       sf_get_sim_state_info_c1_continental_test 0000000180004980 f   c1_continental_test.obj
 0001:00003a50       chart_debug_initialization 0000000180004a50 f   c1_continental_test.obj
 0001:000046c0       sf_get_instance_specialization 00000001800056c0 f   c1_continental_test.obj
 0001:000046d0       sf_opaque_initialize_c1_continental_test 00000001800056d0 f   c1_continental_test.obj
 0001:00004710       sf_opaque_enable_c1_continental_test 0000000180005710 f   c1_continental_test.obj
 0001:00004730       sf_opaque_disable_c1_continental_test 0000000180005730 f   c1_continental_test.obj
 0001:00004750       sf_opaque_gateway_c1_continental_test 0000000180005750 f   c1_continental_test.obj
 0001:00004a30       sf_opaque_get_sim_state_c1_continental_test 0000000180005a30 f   c1_continental_test.obj
 0001:00004a50       sf_opaque_set_sim_state_c1_continental_test 0000000180005a50 f   c1_continental_test.obj
 0001:00004a80       sf_opaque_terminate_c1_continental_test 0000000180005a80 f   c1_continental_test.obj
 0001:00004b20       sf_opaque_init_subchart_simstructs 0000000180005b20 f   c1_continental_test.obj
 0001:00004b40       mdlProcessParameters_c1_continental_test 0000000180005b40 f   c1_continental_test.obj
 0001:00004c20       mdlSetWorkWidths_c1_continental_test 0000000180005c20 f   c1_continental_test.obj
 0001:000051e0       mdlRTW_c1_continental_test 00000001800061e0 f   c1_continental_test.obj
 0001:00005220       mdlStart_c1_continental_test 0000000180006220 f   c1_continental_test.obj
 0001:00005600       initialize_c2_continental_test 0000000180006600 f   c2_continental_test.obj
 0001:00005650       initialize_params_c2_continental_test 0000000180006650 f   c2_continental_test.obj
 0001:00005660       enable_c2_continental_test 0000000180006660 f   c2_continental_test.obj
 0001:00005690       disable_c2_continental_test 0000000180006690 f   c2_continental_test.obj
 0001:000056c0       c2_update_debugger_state_c2_continental_test 00000001800066c0 f   c2_continental_test.obj
 0001:000056d0       get_sim_state_c2_continental_test 00000001800066d0 f   c2_continental_test.obj
 0001:000058d0       set_sim_state_c2_continental_test 00000001800068d0 f   c2_continental_test.obj
 0001:00005a20       finalize_c2_continental_test 0000000180006a20 f   c2_continental_test.obj
 0001:00005a30       sf_gateway_c2_continental_test 0000000180006a30 f   c2_continental_test.obj
 0001:00005d40       c2_chartstep_c2_continental_test 0000000180006d40 f   c2_continental_test.obj
 0001:000097c0       initSimStructsc2_continental_test 000000018000a7c0 f   c2_continental_test.obj
 0001:000097d0       init_script_number_translation 000000018000a7d0 f   c2_continental_test.obj
 0001:000097f0       c2_sf_marshallOut          000000018000a7f0 f   c2_continental_test.obj
 0001:000099d0       c2_emlrt_marshallIn        000000018000a9d0 f   c2_continental_test.obj
 0001:00009a40       c2_b_emlrt_marshallIn      000000018000aa40 f   c2_continental_test.obj
 0001:00009b40       c2_sf_marshallIn           000000018000ab40 f   c2_continental_test.obj
 0001:00009c80       c2_b_sf_marshallOut        000000018000ac80 f   c2_continental_test.obj
 0001:00009d30       c2_c_emlrt_marshallIn      000000018000ad30 f   c2_continental_test.obj
 0001:00009dc0       c2_b_sf_marshallIn         000000018000adc0 f   c2_continental_test.obj
 0001:00009e60       c2_info_helper             000000018000ae60 f   c2_continental_test.obj
 0001:0000cf10       c2_emlrt_marshallOut       000000018000df10 f   c2_continental_test.obj
 0001:0000cfa0       c2_b_emlrt_marshallOut     000000018000dfa0 f   c2_continental_test.obj
 0001:0000d010       c2_mpower                  000000018000e010 f   c2_continental_test.obj
 0001:0000d080       c2_eml_scalar_eg           000000018000e080 f   c2_continental_test.obj
 0001:0000d090       c2_e_emlrt_marshallIn      000000018000e090 f   c2_continental_test.obj
 0001:0000d0f0       c2_f_emlrt_marshallIn      000000018000e0f0 f   c2_continental_test.obj
 0001:0000d180       init_dsm_address_info      000000018000e180 f   c2_continental_test.obj
 0001:0000d8b0       sf_get_sim_state_info_c2_continental_test 000000018000e8b0 f   c2_continental_test.obj
 0001:0000d980       chart_debug_initialization 000000018000e980 f   c2_continental_test.obj
 0001:0000ea50       sf_get_instance_specialization 000000018000fa50 f   c2_continental_test.obj
 0001:0000ea60       sf_opaque_initialize_c2_continental_test 000000018000fa60 f   c2_continental_test.obj
 0001:0000eaa0       sf_opaque_enable_c2_continental_test 000000018000faa0 f   c2_continental_test.obj
 0001:0000eac0       sf_opaque_disable_c2_continental_test 000000018000fac0 f   c2_continental_test.obj
 0001:0000eae0       sf_opaque_gateway_c2_continental_test 000000018000fae0 f   c2_continental_test.obj
 0001:0000edc0       sf_opaque_get_sim_state_c2_continental_test 000000018000fdc0 f   c2_continental_test.obj
 0001:0000ede0       sf_opaque_set_sim_state_c2_continental_test 000000018000fde0 f   c2_continental_test.obj
 0001:0000ee10       sf_opaque_terminate_c2_continental_test 000000018000fe10 f   c2_continental_test.obj
 0001:0000eeb0       sf_opaque_init_subchart_simstructs 000000018000feb0 f   c2_continental_test.obj
 0001:0000eed0       mdlProcessParameters_c2_continental_test 000000018000fed0 f   c2_continental_test.obj
 0001:0000efb0       mdlSetWorkWidths_c2_continental_test 000000018000ffb0 f   c2_continental_test.obj
 0001:0000f530       mdlRTW_c2_continental_test 0000000180010530 f   c2_continental_test.obj
 0001:0000f570       mdlStart_c2_continental_test 0000000180010570 f   c2_continental_test.obj
 0001:0000f960       initialize_c3_continental_test 0000000180010960 f   c3_continental_test.obj
 0001:0000f9b0       initialize_params_c3_continental_test 00000001800109b0 f   c3_continental_test.obj
 0001:0000f9c0       enable_c3_continental_test 00000001800109c0 f   c3_continental_test.obj
 0001:0000f9f0       disable_c3_continental_test 00000001800109f0 f   c3_continental_test.obj
 0001:0000fa20       c3_update_debugger_state_c3_continental_test 0000000180010a20 f   c3_continental_test.obj
 0001:0000fa30       get_sim_state_c3_continental_test 0000000180010a30 f   c3_continental_test.obj
 0001:0000fdd0       set_sim_state_c3_continental_test 0000000180010dd0 f   c3_continental_test.obj
 0001:00010050       finalize_c3_continental_test 0000000180011050 f   c3_continental_test.obj
 0001:00010060       sf_gateway_c3_continental_test 0000000180011060 f   c3_continental_test.obj
 0001:00012bf0       initSimStructsc3_continental_test 0000000180013bf0 f   c3_continental_test.obj
 0001:00012c00       init_script_number_translation 0000000180013c00 f   c3_continental_test.obj
 0001:00012c20       c3_sf_marshallOut          0000000180013c20 f   c3_continental_test.obj
 0001:00012d60       c3_emlrt_marshallIn        0000000180013d60 f   c3_continental_test.obj
 0001:00012dd0       c3_b_emlrt_marshallIn      0000000180013dd0 f   c3_continental_test.obj
 0001:00012ec0       c3_sf_marshallIn           0000000180013ec0 f   c3_continental_test.obj
 0001:00012fb0       c3_b_sf_marshallOut        0000000180013fb0 f   c3_continental_test.obj
 0001:00013060       c3_c_emlrt_marshallIn      0000000180014060 f   c3_continental_test.obj
 0001:000130f0       c3_b_sf_marshallIn         00000001800140f0 f   c3_continental_test.obj
 0001:00013190       c3_c_sf_marshallOut        0000000180014190 f   c3_continental_test.obj
 0001:000132e0       c3_d_emlrt_marshallIn      00000001800142e0 f   c3_continental_test.obj
 0001:000133d0       c3_c_sf_marshallIn         00000001800143d0 f   c3_continental_test.obj
 0001:000134d0       c3_d_sf_marshallOut        00000001800144d0 f   c3_continental_test.obj
 0001:00013600       c3_e_sf_marshallOut        0000000180014600 f   c3_continental_test.obj
 0001:00013750       c3_e_emlrt_marshallIn      0000000180014750 f   c3_continental_test.obj
 0001:00013850       c3_d_sf_marshallIn         0000000180014850 f   c3_continental_test.obj
 0001:00013950       c3_g_emlrt_marshallIn      0000000180014950 f   c3_continental_test.obj
 0001:000139b0       c3_h_emlrt_marshallIn      00000001800149b0 f   c3_continental_test.obj
 0001:00013a40       init_dsm_address_info      0000000180014a40 f   c3_continental_test.obj
 0001:00014170       sf_get_sim_state_info_c3_continental_test 0000000180015170 f   c3_continental_test.obj
 0001:00014240       chart_debug_initialization 0000000180015240 f   c3_continental_test.obj
 0001:00014ea0       sf_get_instance_specialization 0000000180015ea0 f   c3_continental_test.obj
 0001:00014eb0       sf_opaque_initialize_c3_continental_test 0000000180015eb0 f   c3_continental_test.obj
 0001:00014ef0       sf_opaque_enable_c3_continental_test 0000000180015ef0 f   c3_continental_test.obj
 0001:00014f10       sf_opaque_disable_c3_continental_test 0000000180015f10 f   c3_continental_test.obj
 0001:00014f30       sf_opaque_gateway_c3_continental_test 0000000180015f30 f   c3_continental_test.obj
 0001:00015210       sf_opaque_get_sim_state_c3_continental_test 0000000180016210 f   c3_continental_test.obj
 0001:00015230       sf_opaque_set_sim_state_c3_continental_test 0000000180016230 f   c3_continental_test.obj
 0001:00015260       sf_opaque_terminate_c3_continental_test 0000000180016260 f   c3_continental_test.obj
 0001:00015300       sf_opaque_init_subchart_simstructs 0000000180016300 f   c3_continental_test.obj
 0001:00015320       mdlProcessParameters_c3_continental_test 0000000180016320 f   c3_continental_test.obj
 0001:00015400       mdlSetWorkWidths_c3_continental_test 0000000180016400 f   c3_continental_test.obj
 0001:00015910       mdlRTW_c3_continental_test 0000000180016910 f   c3_continental_test.obj
 0001:00015950       mdlStart_c3_continental_test 0000000180016950 f   c3_continental_test.obj
 0001:00015d30       initialize_c4_continental_test 0000000180016d30 f   c4_continental_test.obj
 0001:00015d80       initialize_params_c4_continental_test 0000000180016d80 f   c4_continental_test.obj
 0001:00015d90       enable_c4_continental_test 0000000180016d90 f   c4_continental_test.obj
 0001:00015dc0       disable_c4_continental_test 0000000180016dc0 f   c4_continental_test.obj
 0001:00015df0       c4_update_debugger_state_c4_continental_test 0000000180016df0 f   c4_continental_test.obj
 0001:00015e00       get_sim_state_c4_continental_test 0000000180016e00 f   c4_continental_test.obj
 0001:00016000       set_sim_state_c4_continental_test 0000000180017000 f   c4_continental_test.obj
 0001:00016150       finalize_c4_continental_test 0000000180017150 f   c4_continental_test.obj
 0001:00016160       sf_gateway_c4_continental_test 0000000180017160 f   c4_continental_test.obj
 0001:00017210       initSimStructsc4_continental_test 0000000180018210 f   c4_continental_test.obj
 0001:00017220       init_script_number_translation 0000000180018220 f   c4_continental_test.obj
 0001:00017240       c4_sf_marshallOut          0000000180018240 f   c4_continental_test.obj
 0001:00017420       c4_emlrt_marshallIn        0000000180018420 f   c4_continental_test.obj
 0001:00017490       c4_b_emlrt_marshallIn      0000000180018490 f   c4_continental_test.obj
 0001:00017590       c4_sf_marshallIn           0000000180018590 f   c4_continental_test.obj
 0001:000176d0       c4_b_sf_marshallOut        00000001800186d0 f   c4_continental_test.obj
 0001:00017780       c4_c_emlrt_marshallIn      0000000180018780 f   c4_continental_test.obj
 0001:00017810       c4_b_sf_marshallIn         0000000180018810 f   c4_continental_test.obj
 0001:000178b0       c4_info_helper             00000001800188b0 f   c4_continental_test.obj
 0001:0001e420       c4_emlrt_marshallOut       000000018001f420 f   c4_continental_test.obj
 0001:0001e4b0       c4_b_emlrt_marshallOut     000000018001f4b0 f   c4_continental_test.obj
 0001:0001e520       c4_eml_sort_le             000000018001f520 f   c4_continental_test.obj
 0001:0001e8c0       c4_e_emlrt_marshallIn      000000018001f8c0 f   c4_continental_test.obj
 0001:0001e920       c4_f_emlrt_marshallIn      000000018001f920 f   c4_continental_test.obj
 0001:0001e9b0       c4_b_sortrows              000000018001f9b0 f   c4_continental_test.obj
 0001:0001f680       init_dsm_address_info      0000000180020680 f   c4_continental_test.obj
 0001:0001fc50       sf_get_sim_state_info_c4_continental_test 0000000180020c50 f   c4_continental_test.obj
 0001:0001fd20       chart_debug_initialization 0000000180020d20 f   c4_continental_test.obj
 0001:000207c0       sf_get_instance_specialization 00000001800217c0 f   c4_continental_test.obj
 0001:000207d0       sf_opaque_initialize_c4_continental_test 00000001800217d0 f   c4_continental_test.obj
 0001:00020810       sf_opaque_enable_c4_continental_test 0000000180021810 f   c4_continental_test.obj
 0001:00020830       sf_opaque_disable_c4_continental_test 0000000180021830 f   c4_continental_test.obj
 0001:00020850       sf_opaque_gateway_c4_continental_test 0000000180021850 f   c4_continental_test.obj
 0001:00020b30       sf_opaque_get_sim_state_c4_continental_test 0000000180021b30 f   c4_continental_test.obj
 0001:00020b50       sf_opaque_set_sim_state_c4_continental_test 0000000180021b50 f   c4_continental_test.obj
 0001:00020b80       sf_opaque_terminate_c4_continental_test 0000000180021b80 f   c4_continental_test.obj
 0001:00020c20       sf_opaque_init_subchart_simstructs 0000000180021c20 f   c4_continental_test.obj
 0001:00020c40       mdlProcessParameters_c4_continental_test 0000000180021c40 f   c4_continental_test.obj
 0001:00020d20       mdlSetWorkWidths_c4_continental_test 0000000180021d20 f   c4_continental_test.obj
 0001:00021270       mdlRTW_c4_continental_test 0000000180022270 f   c4_continental_test.obj
 0001:000212b0       mdlStart_c4_continental_test 00000001800222b0 f   c4_continental_test.obj
 0001:000216a0       initialize_c5_continental_test 00000001800226a0 f   c5_continental_test.obj
 0001:000216f0       initialize_params_c5_continental_test 00000001800226f0 f   c5_continental_test.obj
 0001:00021700       enable_c5_continental_test 0000000180022700 f   c5_continental_test.obj
 0001:00021730       disable_c5_continental_test 0000000180022730 f   c5_continental_test.obj
 0001:00021760       c5_update_debugger_state_c5_continental_test 0000000180022760 f   c5_continental_test.obj
 0001:00021770       get_sim_state_c5_continental_test 0000000180022770 f   c5_continental_test.obj
 0001:00021a60       set_sim_state_c5_continental_test 0000000180022a60 f   c5_continental_test.obj
 0001:00021c40       finalize_c5_continental_test 0000000180022c40 f   c5_continental_test.obj
 0001:00021c50       sf_gateway_c5_continental_test 0000000180022c50 f   c5_continental_test.obj
 0001:00022f50       initSimStructsc5_continental_test 0000000180023f50 f   c5_continental_test.obj
 0001:00022f60       init_script_number_translation 0000000180023f60 f   c5_continental_test.obj
 0001:00022f80       c5_sf_marshallOut          0000000180023f80 f   c5_continental_test.obj
 0001:000230d0       c5_emlrt_marshallIn        00000001800240d0 f   c5_continental_test.obj
 0001:00023140       c5_b_emlrt_marshallIn      0000000180024140 f   c5_continental_test.obj
 0001:00023240       c5_sf_marshallIn           0000000180024240 f   c5_continental_test.obj
 0001:00023330       c5_b_sf_marshallOut        0000000180024330 f   c5_continental_test.obj
 0001:00023510       c5_c_emlrt_marshallIn      0000000180024510 f   c5_continental_test.obj
 0001:00023580       c5_d_emlrt_marshallIn      0000000180024580 f   c5_continental_test.obj
 0001:00023680       c5_b_sf_marshallIn         0000000180024680 f   c5_continental_test.obj
 0001:000237c0       c5_c_sf_marshallOut        00000001800247c0 f   c5_continental_test.obj
 0001:00023870       c5_e_emlrt_marshallIn      0000000180024870 f   c5_continental_test.obj
 0001:00023900       c5_c_sf_marshallIn         0000000180024900 f   c5_continental_test.obj
 0001:000239a0       c5_g_emlrt_marshallIn      00000001800249a0 f   c5_continental_test.obj
 0001:00023a00       c5_h_emlrt_marshallIn      0000000180024a00 f   c5_continental_test.obj
 0001:00023a90       init_dsm_address_info      0000000180024a90 f   c5_continental_test.obj
 0001:00024310       sf_get_sim_state_info_c5_continental_test 0000000180025310 f   c5_continental_test.obj
 0001:000243e0       chart_debug_initialization 00000001800253e0 f   c5_continental_test.obj
 0001:00025150       sf_get_instance_specialization 0000000180026150 f   c5_continental_test.obj
 0001:00025160       sf_opaque_initialize_c5_continental_test 0000000180026160 f   c5_continental_test.obj
 0001:000251a0       sf_opaque_enable_c5_continental_test 00000001800261a0 f   c5_continental_test.obj
 0001:000251c0       sf_opaque_disable_c5_continental_test 00000001800261c0 f   c5_continental_test.obj
 0001:000251e0       sf_opaque_gateway_c5_continental_test 00000001800261e0 f   c5_continental_test.obj
 0001:000254c0       sf_opaque_get_sim_state_c5_continental_test 00000001800264c0 f   c5_continental_test.obj
 0001:000254e0       sf_opaque_set_sim_state_c5_continental_test 00000001800264e0 f   c5_continental_test.obj
 0001:00025510       sf_opaque_terminate_c5_continental_test 0000000180026510 f   c5_continental_test.obj
 0001:000255b0       sf_opaque_init_subchart_simstructs 00000001800265b0 f   c5_continental_test.obj
 0001:000255d0       mdlProcessParameters_c5_continental_test 00000001800265d0 f   c5_continental_test.obj
 0001:000256b0       mdlSetWorkWidths_c5_continental_test 00000001800266b0 f   c5_continental_test.obj
 0001:00025c30       mdlRTW_c5_continental_test 0000000180026c30 f   c5_continental_test.obj
 0001:00025c70       mdlStart_c5_continental_test 0000000180026c70 f   c5_continental_test.obj
 0001:00026f84       $LN107                     0000000180027f84     continental_test_sfun_registry.obj
 0001:000282b4       $LN17                      00000001800292b4     continental_test_sfun_registry.obj
 0001:0002883c       $LN26                      000000018002983c     continental_test_sfun_registry.obj
 0001:00028f24       $LN23                      0000000180029f24     continental_test_sfun_registry.obj
 0001:00029500       $LN26                      000000018002a500     continental_test_sfun_registry.obj
 0001:0002ae30       sf_debug_api_wrapper       000000018002be30 f   continental_test_sfun_registry.obj
 0001:0002ae80       ProcessMexSfunctionCmdLineCall 000000018002be80 f   continental_test_sfun_registry.obj
 0001:0002b140       getChartInfoFromSimStruct  000000018002c140 f   continental_test_sfun_registry.obj
 0001:0002b200       mdlSetWorkWidths           000000018002c200 f   continental_test_sfun_registry.obj
 0001:0002b230       mdlProcessParameters       000000018002c230 f   continental_test_sfun_registry.obj
 0001:0002b260       mdl_start_processing       000000018002c260 f   continental_test_sfun_registry.obj
 0001:0002b2f0       mdl_terminate_processing   000000018002c2f0 f   continental_test_sfun_registry.obj
 0001:0002b370       mdlStart                   000000018002c370 f   continental_test_sfun_registry.obj
 0001:0002b3a0       mdlTerminate               000000018002c3a0 f   continental_test_sfun_registry.obj
 0001:0002b3d0       mdlInitializeSizes         000000018002c3d0 f   continental_test_sfun_registry.obj
 0001:0002b400       mdlInitializeSampleTimes   000000018002c400 f   continental_test_sfun_registry.obj
 0001:0002b430       mdl_outputs_continuous_legacy 000000018002c430 f   continental_test_sfun_registry.obj
 0001:0002b530       mdl_outputs_processing     000000018002c530 f   continental_test_sfun_registry.obj
 0001:0002b630       mdl_zeroCrossings_processing 000000018002c630 f   continental_test_sfun_registry.obj
 0001:0002b670       mdlZeroCrossings           000000018002c670 f   continental_test_sfun_registry.obj
 0001:0002b6a0       mdl_derivatives_processing 000000018002c6a0 f   continental_test_sfun_registry.obj
 0001:0002b6f0       mdlDerivatives             000000018002c6f0 f   continental_test_sfun_registry.obj
 0001:0002b720       mdl_initialize_conditions_processing 000000018002c720 f   continental_test_sfun_registry.obj
 0001:0002b770       mdlInitializeConditions    000000018002c770 f   continental_test_sfun_registry.obj
 0001:0002b7a0       mdl_ext_mode_exec_processing 000000018002c7a0 f   continental_test_sfun_registry.obj
 0001:0002b7e0       mdlExtModeExec             000000018002c7e0 f   continental_test_sfun_registry.obj
 0001:0002b810       mdlRTW                     000000018002c810 f   continental_test_sfun_registry.obj
 0001:0002b850       mdl_enable_processing      000000018002c850 f   continental_test_sfun_registry.obj
 0001:0002b890       mdlEnable                  000000018002c890 f   continental_test_sfun_registry.obj
 0001:0002b8c0       mdl_disable_processing     000000018002c8c0 f   continental_test_sfun_registry.obj
 0001:0002b900       mdlDisable                 000000018002c900 f   continental_test_sfun_registry.obj
 0001:0002b930       mdlOutputs                 000000018002c930 f   continental_test_sfun_registry.obj
 0001:0002bb00       mdlGetTimeOfNextVarHit     000000018002cb00 f   continental_test_sfun_registry.obj
 0001:0002bb50       _RegNumInputPortsCB        000000018002cb50 f   continental_test_sfun_registry.obj
 0001:0002bbd0       _RegNumOutputPortsCB       000000018002cbd0 f   continental_test_sfun_registry.obj
 0001:0002bc50       _CreateSimStruct           000000018002cc50 f   continental_test_sfun_registry.obj
 0001:0002bde0       _ssFatalError              000000018002cde0 f   continental_test_sfun_registry.obj
 0001:0002be90       _ProcessMexSfunctionCmdLineCall 000000018002ce90 f   continental_test_sfun_registry.obj
 0001:0002cb90       $$000000                   000000018002db90     MSVCRT:amdsecgs.obj
 0001:0002cbec       pre_c_init                 000000018002dbec f   MSVCRT:crtdll.obj
 0001:0002cee4       __DllMainCRTStartup        000000018002dee4 f   MSVCRT:crtdll.obj
 0001:0002d400       __DllMainCRTStartup$filt$0 000000018002e400 f   MSVCRT:crtdll.obj
 0001:0002d425       __DllMainCRTStartup$fin$1  000000018002e425 f   MSVCRT:crtdll.obj
 0001:0002d440       _IsNonwritableInCurrentImage$filt$0 000000018002e440 f   MSVCRT:pesect.obj
 0001:0002d460       _onexit$fin$0              000000018002e460 f   MSVCRT:atonexit.obj
 0002:00000470       pcinit                     000000018002f470     MSVCRT:crtdll.obj
 0002:00000478       pinit                      000000018002f478     MSVCRT:atonexit.obj
 0002:00000bb8       GS_ExceptionPointers       000000018002fbb8     MSVCRT:gs_report.obj
 0002:00000c80       $unwind$load_continental_test_optimization_info 000000018002fc80     continental_test_sfun.obj
 0002:00000c88       $unwind$unload_continental_test_optimization_info 000000018002fc88     continental_test_sfun.obj
 0002:00000c90       $unwind$sf_continental_test_method_dispatcher 000000018002fc90     continental_test_sfun.obj
 0002:00000c98       $unwind$sf_continental_test_process_check_sum_call 000000018002fc98     continental_test_sfun.obj
 0002:00000ca8       $unwind$sf_continental_test_autoinheritance_info 000000018002fca8     continental_test_sfun.obj
 0002:00000cb8       $unwind$sf_continental_test_get_eml_resolved_functions_info 000000018002fcb8     continental_test_sfun.obj
 0002:00000cc8       $unwind$sf_continental_test_third_party_uses_info 000000018002fcc8     continental_test_sfun.obj
 0002:00000cd8       $unwind$sf_continental_test_updateBuildInfo_args_info 000000018002fcd8     continental_test_sfun.obj
 0002:00000ce8       $unwind$continental_test_debug_initialize 000000018002fce8     continental_test_sfun.obj
 0002:00000cf0       $unwind$sf_c1_continental_test_get_eml_resolved_functions_info 000000018002fcf0     c1_continental_test.obj
 0002:00000cf8       $unwind$sf_c1_continental_test_get_check_sum 000000018002fcf8     c1_continental_test.obj
 0002:00000d00       $unwind$c1_continental_test_method_dispatcher 000000018002fd00     c1_continental_test.obj
 0002:00000d08       $unwind$initialize_c1_continental_test 000000018002fd08     c1_continental_test.obj
 0002:00000d10       $unwind$enable_c1_continental_test 000000018002fd10     c1_continental_test.obj
 0002:00000d18       $unwind$disable_c1_continental_test 000000018002fd18     c1_continental_test.obj
 0002:00000d20       $unwind$get_sim_state_c1_continental_test 000000018002fd20     c1_continental_test.obj
 0002:00000d30       $unwind$set_sim_state_c1_continental_test 000000018002fd30     c1_continental_test.obj
 0002:00000d40       $unwind$sf_gateway_c1_continental_test 000000018002fd40     c1_continental_test.obj
 0002:00000d50       $unwind$c1_sf_marshallOut  000000018002fd50     c1_continental_test.obj
 0002:00000d60       $unwind$c1_emlrt_marshallIn 000000018002fd60     c1_continental_test.obj
 0002:00000d68       $unwind$c1_b_emlrt_marshallIn 000000018002fd68     c1_continental_test.obj
 0002:00000d78       $unwind$c1_sf_marshallIn   000000018002fd78     c1_continental_test.obj
 0002:00000d88       $unwind$c1_b_sf_marshallOut 000000018002fd88     c1_continental_test.obj
 0002:00000d98       $unwind$c1_c_sf_marshallOut 000000018002fd98     c1_continental_test.obj
 0002:00000da0       $unwind$c1_c_emlrt_marshallIn 000000018002fda0     c1_continental_test.obj
 0002:00000da8       $unwind$c1_b_sf_marshallIn 000000018002fda8     c1_continental_test.obj
 0002:00000db0       $unwind$c1_e_emlrt_marshallIn 000000018002fdb0     c1_continental_test.obj
 0002:00000db8       $unwind$c1_f_emlrt_marshallIn 000000018002fdb8     c1_continental_test.obj
 0002:00000dc0       $unwind$sf_c1_continental_test_get_autoinheritance_info 000000018002fdc0     c1_continental_test.obj
 0002:00000dc8       $unwind$sf_c1_continental_test_third_party_uses_info 000000018002fdc8     c1_continental_test.obj
 0002:00000dd0       $unwind$sf_c1_continental_test_updateBuildInfo_args_info 000000018002fdd0     c1_continental_test.obj
 0002:00000dd8       $unwind$sf_get_sim_state_info_c1_continental_test 000000018002fdd8     c1_continental_test.obj
 0002:00000de0       $unwind$chart_debug_initialization 000000018002fde0     c1_continental_test.obj
 0002:00000de8       $unwind$sf_opaque_initialize_c1_continental_test 000000018002fde8     c1_continental_test.obj
 0002:00000df0       $unwind$sf_opaque_enable_c1_continental_test 000000018002fdf0     c1_continental_test.obj
 0002:00000df8       $unwind$sf_opaque_disable_c1_continental_test 000000018002fdf8     c1_continental_test.obj
 0002:00000e00       $unwind$sf_opaque_gateway_c1_continental_test 000000018002fe00     c1_continental_test.obj
 0002:00000e08       $unwind$sf_internal_get_sim_state_c1_continental_test 000000018002fe08     c1_continental_test.obj
 0002:00000e10       $unwind$sf_internal_set_sim_state_c1_continental_test 000000018002fe10     c1_continental_test.obj
 0002:00000e18       $unwind$sf_opaque_get_sim_state_c1_continental_test 000000018002fe18     c1_continental_test.obj
 0002:00000e20       $unwind$sf_opaque_set_sim_state_c1_continental_test 000000018002fe20     c1_continental_test.obj
 0002:00000e28       $unwind$sf_opaque_terminate_c1_continental_test 000000018002fe28     c1_continental_test.obj
 0002:00000e30       $unwind$sf_opaque_init_subchart_simstructs 000000018002fe30     c1_continental_test.obj
 0002:00000e38       $unwind$mdlProcessParameters_c1_continental_test 000000018002fe38     c1_continental_test.obj
 0002:00000e40       $unwind$mdlSetWorkWidths_c1_continental_test 000000018002fe40     c1_continental_test.obj
 0002:00000e48       $unwind$mdlRTW_c1_continental_test 000000018002fe48     c1_continental_test.obj
 0002:00000e50       $unwind$mdlStart_c1_continental_test 000000018002fe50     c1_continental_test.obj
 0002:00000e58       $unwind$sf_c2_continental_test_get_eml_resolved_functions_info 000000018002fe58     c2_continental_test.obj
 0002:00000e60       $unwind$sf_c2_continental_test_get_check_sum 000000018002fe60     c2_continental_test.obj
 0002:00000e68       $unwind$c2_continental_test_method_dispatcher 000000018002fe68     c2_continental_test.obj
 0002:00000e70       $unwind$initialize_c2_continental_test 000000018002fe70     c2_continental_test.obj
 0002:00000e78       $unwind$enable_c2_continental_test 000000018002fe78     c2_continental_test.obj
 0002:00000e80       $unwind$disable_c2_continental_test 000000018002fe80     c2_continental_test.obj
 0002:00000e88       $unwind$get_sim_state_c2_continental_test 000000018002fe88     c2_continental_test.obj
 0002:00000e98       $unwind$set_sim_state_c2_continental_test 000000018002fe98     c2_continental_test.obj
 0002:00000ea8       $unwind$sf_gateway_c2_continental_test 000000018002fea8     c2_continental_test.obj
 0002:00000eb0       $unwind$c2_chartstep_c2_continental_test 000000018002feb0     c2_continental_test.obj
 0002:00000ec0       $unwind$c2_sf_marshallOut  000000018002fec0     c2_continental_test.obj
 0002:00000ed0       $unwind$c2_emlrt_marshallIn 000000018002fed0     c2_continental_test.obj
 0002:00000ed8       $unwind$c2_b_emlrt_marshallIn 000000018002fed8     c2_continental_test.obj
 0002:00000ee8       $unwind$c2_sf_marshallIn   000000018002fee8     c2_continental_test.obj
 0002:00000ef8       $unwind$c2_b_sf_marshallOut 000000018002fef8     c2_continental_test.obj
 0002:00000f00       $unwind$c2_c_emlrt_marshallIn 000000018002ff00     c2_continental_test.obj
 0002:00000f08       $unwind$c2_b_sf_marshallIn 000000018002ff08     c2_continental_test.obj
 0002:00000f10       $unwind$c2_info_helper     000000018002ff10     c2_continental_test.obj
 0002:00000f18       $unwind$c2_emlrt_marshallOut 000000018002ff18     c2_continental_test.obj
 0002:00000f20       $unwind$c2_b_emlrt_marshallOut 000000018002ff20     c2_continental_test.obj
 0002:00000f28       $unwind$c2_mpower          000000018002ff28     c2_continental_test.obj
 0002:00000f30       $unwind$c2_e_emlrt_marshallIn 000000018002ff30     c2_continental_test.obj
 0002:00000f38       $unwind$c2_f_emlrt_marshallIn 000000018002ff38     c2_continental_test.obj
 0002:00000f40       $unwind$sf_c2_continental_test_get_autoinheritance_info 000000018002ff40     c2_continental_test.obj
 0002:00000f48       $unwind$sf_c2_continental_test_third_party_uses_info 000000018002ff48     c2_continental_test.obj
 0002:00000f50       $unwind$sf_c2_continental_test_updateBuildInfo_args_info 000000018002ff50     c2_continental_test.obj
 0002:00000f58       $unwind$sf_get_sim_state_info_c2_continental_test 000000018002ff58     c2_continental_test.obj
 0002:00000f60       $unwind$chart_debug_initialization 000000018002ff60     c2_continental_test.obj
 0002:00000f68       $unwind$sf_opaque_initialize_c2_continental_test 000000018002ff68     c2_continental_test.obj
 0002:00000f70       $unwind$sf_opaque_enable_c2_continental_test 000000018002ff70     c2_continental_test.obj
 0002:00000f78       $unwind$sf_opaque_disable_c2_continental_test 000000018002ff78     c2_continental_test.obj
 0002:00000f80       $unwind$sf_opaque_gateway_c2_continental_test 000000018002ff80     c2_continental_test.obj
 0002:00000f88       $unwind$sf_internal_get_sim_state_c2_continental_test 000000018002ff88     c2_continental_test.obj
 0002:00000f90       $unwind$sf_internal_set_sim_state_c2_continental_test 000000018002ff90     c2_continental_test.obj
 0002:00000f98       $unwind$sf_opaque_get_sim_state_c2_continental_test 000000018002ff98     c2_continental_test.obj
 0002:00000fa0       $unwind$sf_opaque_set_sim_state_c2_continental_test 000000018002ffa0     c2_continental_test.obj
 0002:00000fa8       $unwind$sf_opaque_terminate_c2_continental_test 000000018002ffa8     c2_continental_test.obj
 0002:00000fb0       $unwind$sf_opaque_init_subchart_simstructs 000000018002ffb0     c2_continental_test.obj
 0002:00000fb8       $unwind$mdlProcessParameters_c2_continental_test 000000018002ffb8     c2_continental_test.obj
 0002:00000fc0       $unwind$mdlSetWorkWidths_c2_continental_test 000000018002ffc0     c2_continental_test.obj
 0002:00000fc8       $unwind$mdlRTW_c2_continental_test 000000018002ffc8     c2_continental_test.obj
 0002:00000fd0       $unwind$mdlStart_c2_continental_test 000000018002ffd0     c2_continental_test.obj
 0002:00000fd8       $unwind$sf_c3_continental_test_get_eml_resolved_functions_info 000000018002ffd8     c3_continental_test.obj
 0002:00000fe0       $unwind$sf_c3_continental_test_get_check_sum 000000018002ffe0     c3_continental_test.obj
 0002:00000fe8       $unwind$c3_continental_test_method_dispatcher 000000018002ffe8     c3_continental_test.obj
 0002:00000ff0       $unwind$initialize_c3_continental_test 000000018002fff0     c3_continental_test.obj
 0002:00000ff8       $unwind$enable_c3_continental_test 000000018002fff8     c3_continental_test.obj
 0002:00001000       $unwind$disable_c3_continental_test 0000000180030000     c3_continental_test.obj
 0002:00001008       $unwind$get_sim_state_c3_continental_test 0000000180030008     c3_continental_test.obj
 0002:00001018       $unwind$set_sim_state_c3_continental_test 0000000180030018     c3_continental_test.obj
 0002:00001028       $unwind$sf_gateway_c3_continental_test 0000000180030028     c3_continental_test.obj
 0002:00001038       $unwind$c3_sf_marshallOut  0000000180030038     c3_continental_test.obj
 0002:00001048       $unwind$c3_emlrt_marshallIn 0000000180030048     c3_continental_test.obj
 0002:00001050       $unwind$c3_b_emlrt_marshallIn 0000000180030050     c3_continental_test.obj
 0002:00001060       $unwind$c3_sf_marshallIn   0000000180030060     c3_continental_test.obj
 0002:00001070       $unwind$c3_b_sf_marshallOut 0000000180030070     c3_continental_test.obj
 0002:00001078       $unwind$c3_c_emlrt_marshallIn 0000000180030078     c3_continental_test.obj
 0002:00001080       $unwind$c3_b_sf_marshallIn 0000000180030080     c3_continental_test.obj
 0002:00001088       $unwind$c3_c_sf_marshallOut 0000000180030088     c3_continental_test.obj
 0002:00001098       $unwind$c3_d_emlrt_marshallIn 0000000180030098     c3_continental_test.obj
 0002:000010a8       $unwind$c3_c_sf_marshallIn 00000001800300a8     c3_continental_test.obj
 0002:000010b8       $unwind$c3_d_sf_marshallOut 00000001800300b8     c3_continental_test.obj
 0002:000010c0       $unwind$c3_e_sf_marshallOut 00000001800300c0     c3_continental_test.obj
 0002:000010d0       $unwind$c3_e_emlrt_marshallIn 00000001800300d0     c3_continental_test.obj
 0002:000010e0       $unwind$c3_d_sf_marshallIn 00000001800300e0     c3_continental_test.obj
 0002:000010f0       $unwind$c3_g_emlrt_marshallIn 00000001800300f0     c3_continental_test.obj
 0002:000010f8       $unwind$c3_h_emlrt_marshallIn 00000001800300f8     c3_continental_test.obj
 0002:00001100       $unwind$sf_c3_continental_test_get_autoinheritance_info 0000000180030100     c3_continental_test.obj
 0002:00001108       $unwind$sf_c3_continental_test_third_party_uses_info 0000000180030108     c3_continental_test.obj
 0002:00001110       $unwind$sf_c3_continental_test_updateBuildInfo_args_info 0000000180030110     c3_continental_test.obj
 0002:00001118       $unwind$sf_get_sim_state_info_c3_continental_test 0000000180030118     c3_continental_test.obj
 0002:00001120       $unwind$chart_debug_initialization 0000000180030120     c3_continental_test.obj
 0002:00001128       $unwind$sf_opaque_initialize_c3_continental_test 0000000180030128     c3_continental_test.obj
 0002:00001130       $unwind$sf_opaque_enable_c3_continental_test 0000000180030130     c3_continental_test.obj
 0002:00001138       $unwind$sf_opaque_disable_c3_continental_test 0000000180030138     c3_continental_test.obj
 0002:00001140       $unwind$sf_opaque_gateway_c3_continental_test 0000000180030140     c3_continental_test.obj
 0002:00001148       $unwind$sf_internal_get_sim_state_c3_continental_test 0000000180030148     c3_continental_test.obj
 0002:00001150       $unwind$sf_internal_set_sim_state_c3_continental_test 0000000180030150     c3_continental_test.obj
 0002:00001158       $unwind$sf_opaque_get_sim_state_c3_continental_test 0000000180030158     c3_continental_test.obj
 0002:00001160       $unwind$sf_opaque_set_sim_state_c3_continental_test 0000000180030160     c3_continental_test.obj
 0002:00001168       $unwind$sf_opaque_terminate_c3_continental_test 0000000180030168     c3_continental_test.obj
 0002:00001170       $unwind$sf_opaque_init_subchart_simstructs 0000000180030170     c3_continental_test.obj
 0002:00001178       $unwind$mdlProcessParameters_c3_continental_test 0000000180030178     c3_continental_test.obj
 0002:00001180       $unwind$mdlSetWorkWidths_c3_continental_test 0000000180030180     c3_continental_test.obj
 0002:00001188       $unwind$mdlRTW_c3_continental_test 0000000180030188     c3_continental_test.obj
 0002:00001190       $unwind$mdlStart_c3_continental_test 0000000180030190     c3_continental_test.obj
 0002:00001198       $unwind$sf_c4_continental_test_get_eml_resolved_functions_info 0000000180030198     c4_continental_test.obj
 0002:000011a0       $unwind$sf_c4_continental_test_get_check_sum 00000001800301a0     c4_continental_test.obj
 0002:000011a8       $unwind$c4_continental_test_method_dispatcher 00000001800301a8     c4_continental_test.obj
 0002:000011b0       $unwind$initialize_c4_continental_test 00000001800301b0     c4_continental_test.obj
 0002:000011b8       $unwind$enable_c4_continental_test 00000001800301b8     c4_continental_test.obj
 0002:000011c0       $unwind$disable_c4_continental_test 00000001800301c0     c4_continental_test.obj
 0002:000011c8       $unwind$get_sim_state_c4_continental_test 00000001800301c8     c4_continental_test.obj
 0002:000011d8       $unwind$set_sim_state_c4_continental_test 00000001800301d8     c4_continental_test.obj
 0002:000011e8       $unwind$sf_gateway_c4_continental_test 00000001800301e8     c4_continental_test.obj
 0002:000011f8       $unwind$c4_sf_marshallOut  00000001800301f8     c4_continental_test.obj
 0002:00001208       $unwind$c4_emlrt_marshallIn 0000000180030208     c4_continental_test.obj
 0002:00001210       $unwind$c4_b_emlrt_marshallIn 0000000180030210     c4_continental_test.obj
 0002:00001220       $unwind$c4_sf_marshallIn   0000000180030220     c4_continental_test.obj
 0002:00001230       $unwind$c4_b_sf_marshallOut 0000000180030230     c4_continental_test.obj
 0002:00001238       $unwind$c4_c_emlrt_marshallIn 0000000180030238     c4_continental_test.obj
 0002:00001240       $unwind$c4_b_sf_marshallIn 0000000180030240     c4_continental_test.obj
 0002:00001248       $unwind$c4_info_helper     0000000180030248     c4_continental_test.obj
 0002:00001250       $unwind$c4_emlrt_marshallOut 0000000180030250     c4_continental_test.obj
 0002:00001258       $unwind$c4_b_emlrt_marshallOut 0000000180030258     c4_continental_test.obj
 0002:00001260       $unwind$c4_eml_sort_le     0000000180030260     c4_continental_test.obj
 0002:00001268       $unwind$c4_e_emlrt_marshallIn 0000000180030268     c4_continental_test.obj
 0002:00001270       $unwind$c4_f_emlrt_marshallIn 0000000180030270     c4_continental_test.obj
 0002:00001278       $unwind$c4_b_sortrows      0000000180030278     c4_continental_test.obj
 0002:00001288       $unwind$sf_c4_continental_test_get_autoinheritance_info 0000000180030288     c4_continental_test.obj
 0002:00001290       $unwind$sf_c4_continental_test_third_party_uses_info 0000000180030290     c4_continental_test.obj
 0002:00001298       $unwind$sf_c4_continental_test_updateBuildInfo_args_info 0000000180030298     c4_continental_test.obj
 0002:000012a0       $unwind$sf_get_sim_state_info_c4_continental_test 00000001800302a0     c4_continental_test.obj
 0002:000012a8       $unwind$chart_debug_initialization 00000001800302a8     c4_continental_test.obj
 0002:000012b0       $unwind$sf_opaque_initialize_c4_continental_test 00000001800302b0     c4_continental_test.obj
 0002:000012b8       $unwind$sf_opaque_enable_c4_continental_test 00000001800302b8     c4_continental_test.obj
 0002:000012c0       $unwind$sf_opaque_disable_c4_continental_test 00000001800302c0     c4_continental_test.obj
 0002:000012c8       $unwind$sf_opaque_gateway_c4_continental_test 00000001800302c8     c4_continental_test.obj
 0002:000012d0       $unwind$sf_internal_get_sim_state_c4_continental_test 00000001800302d0     c4_continental_test.obj
 0002:000012d8       $unwind$sf_internal_set_sim_state_c4_continental_test 00000001800302d8     c4_continental_test.obj
 0002:000012e0       $unwind$sf_opaque_get_sim_state_c4_continental_test 00000001800302e0     c4_continental_test.obj
 0002:000012e8       $unwind$sf_opaque_set_sim_state_c4_continental_test 00000001800302e8     c4_continental_test.obj
 0002:000012f0       $unwind$sf_opaque_terminate_c4_continental_test 00000001800302f0     c4_continental_test.obj
 0002:000012f8       $unwind$sf_opaque_init_subchart_simstructs 00000001800302f8     c4_continental_test.obj
 0002:00001300       $unwind$mdlProcessParameters_c4_continental_test 0000000180030300     c4_continental_test.obj
 0002:00001308       $unwind$mdlSetWorkWidths_c4_continental_test 0000000180030308     c4_continental_test.obj
 0002:00001310       $unwind$mdlRTW_c4_continental_test 0000000180030310     c4_continental_test.obj
 0002:00001318       $unwind$mdlStart_c4_continental_test 0000000180030318     c4_continental_test.obj
 0002:00001320       $unwind$sf_c5_continental_test_get_eml_resolved_functions_info 0000000180030320     c5_continental_test.obj
 0002:00001328       $unwind$sf_c5_continental_test_get_check_sum 0000000180030328     c5_continental_test.obj
 0002:00001330       $unwind$c5_continental_test_method_dispatcher 0000000180030330     c5_continental_test.obj
 0002:00001338       $unwind$initialize_c5_continental_test 0000000180030338     c5_continental_test.obj
 0002:00001340       $unwind$enable_c5_continental_test 0000000180030340     c5_continental_test.obj
 0002:00001348       $unwind$disable_c5_continental_test 0000000180030348     c5_continental_test.obj
 0002:00001350       $unwind$get_sim_state_c5_continental_test 0000000180030350     c5_continental_test.obj
 0002:00001360       $unwind$set_sim_state_c5_continental_test 0000000180030360     c5_continental_test.obj
 0002:00001370       $unwind$sf_gateway_c5_continental_test 0000000180030370     c5_continental_test.obj
 0002:00001380       $unwind$c5_sf_marshallOut  0000000180030380     c5_continental_test.obj
 0002:00001390       $unwind$c5_emlrt_marshallIn 0000000180030390     c5_continental_test.obj
 0002:00001398       $unwind$c5_b_emlrt_marshallIn 0000000180030398     c5_continental_test.obj
 0002:000013a8       $unwind$c5_sf_marshallIn   00000001800303a8     c5_continental_test.obj
 0002:000013b8       $unwind$c5_b_sf_marshallOut 00000001800303b8     c5_continental_test.obj
 0002:000013c8       $unwind$c5_c_emlrt_marshallIn 00000001800303c8     c5_continental_test.obj
 0002:000013d0       $unwind$c5_d_emlrt_marshallIn 00000001800303d0     c5_continental_test.obj
 0002:000013e0       $unwind$c5_b_sf_marshallIn 00000001800303e0     c5_continental_test.obj
 0002:000013f0       $unwind$c5_c_sf_marshallOut 00000001800303f0     c5_continental_test.obj
 0002:000013f8       $unwind$c5_e_emlrt_marshallIn 00000001800303f8     c5_continental_test.obj
 0002:00001400       $unwind$c5_c_sf_marshallIn 0000000180030400     c5_continental_test.obj
 0002:00001408       $unwind$c5_g_emlrt_marshallIn 0000000180030408     c5_continental_test.obj
 0002:00001410       $unwind$c5_h_emlrt_marshallIn 0000000180030410     c5_continental_test.obj
 0002:00001418       $unwind$sf_c5_continental_test_get_autoinheritance_info 0000000180030418     c5_continental_test.obj
 0002:00001420       $unwind$sf_c5_continental_test_third_party_uses_info 0000000180030420     c5_continental_test.obj
 0002:00001428       $unwind$sf_c5_continental_test_updateBuildInfo_args_info 0000000180030428     c5_continental_test.obj
 0002:00001430       $unwind$sf_get_sim_state_info_c5_continental_test 0000000180030430     c5_continental_test.obj
 0002:00001438       $unwind$chart_debug_initialization 0000000180030438     c5_continental_test.obj
 0002:00001440       $unwind$sf_opaque_initialize_c5_continental_test 0000000180030440     c5_continental_test.obj
 0002:00001448       $unwind$sf_opaque_enable_c5_continental_test 0000000180030448     c5_continental_test.obj
 0002:00001450       $unwind$sf_opaque_disable_c5_continental_test 0000000180030450     c5_continental_test.obj
 0002:00001458       $unwind$sf_opaque_gateway_c5_continental_test 0000000180030458     c5_continental_test.obj
 0002:00001460       $unwind$sf_internal_get_sim_state_c5_continental_test 0000000180030460     c5_continental_test.obj
 0002:00001468       $unwind$sf_internal_set_sim_state_c5_continental_test 0000000180030468     c5_continental_test.obj
 0002:00001470       $unwind$sf_opaque_get_sim_state_c5_continental_test 0000000180030470     c5_continental_test.obj
 0002:00001478       $unwind$sf_opaque_set_sim_state_c5_continental_test 0000000180030478     c5_continental_test.obj
 0002:00001480       $unwind$sf_opaque_terminate_c5_continental_test 0000000180030480     c5_continental_test.obj
 0002:00001488       $unwind$sf_opaque_init_subchart_simstructs 0000000180030488     c5_continental_test.obj
 0002:00001490       $unwind$mdlProcessParameters_c5_continental_test 0000000180030490     c5_continental_test.obj
 0002:00001498       $unwind$mdlSetWorkWidths_c5_continental_test 0000000180030498     c5_continental_test.obj
 0002:000014a0       $unwind$mdlRTW_c5_continental_test 00000001800304a0     c5_continental_test.obj
 0002:000014a8       $unwind$mdlStart_c5_continental_test 00000001800304a8     c5_continental_test.obj
 0002:000014b0       $unwind$mexFunction        00000001800304b0     continental_test_sfun_registry.obj
 0002:000014b8       $unwind$_ssSetInputPortDirectFeedThroughFcn 00000001800304b8     continental_test_sfun_registry.obj
 0002:000014c0       $unwind$_ssGetInputPortSignalPtrsFcn 00000001800304c0     continental_test_sfun_registry.obj
 0002:000014c8       $unwind$_ssGetInputPortSignalFcn 00000001800304c8     continental_test_sfun_registry.obj
 0002:000014d0       $unwind$_ssSetInputPortReusableFcn 00000001800304d0     continental_test_sfun_registry.obj
 0002:000014e0       $unwind$_ssSetOutputPortReusableFcn 00000001800304e0     continental_test_sfun_registry.obj
 0002:000014f0       $unwind$ssGetIsZeroCrossControlDisabled 00000001800304f0     continental_test_sfun_registry.obj
 0002:000014f8       $unwind$ssSetIsInputPortUsedForContZcSignal 00000001800304f8     continental_test_sfun_registry.obj
 0002:00001500       $unwind$ssSetZcSignalIsZcElementDisc 0000000180030500     continental_test_sfun_registry.obj
 0002:00001510       $unwind$ssSetZcSignalName  0000000180030510     continental_test_sfun_registry.obj
 0002:00001518       $unwind$ssSetZcSignalWidth 0000000180030518     continental_test_sfun_registry.obj
 0002:00001520       $unwind$ssSetZcSignalZcEventType 0000000180030520     continental_test_sfun_registry.obj
 0002:00001528       $unwind$ssSetZcSignalType  0000000180030528     continental_test_sfun_registry.obj
 0002:00001530       $unwind$ssSetZcSignalZcTol 0000000180030530     continental_test_sfun_registry.obj
 0002:00001538       $unwind$ssSetZcSignalNeedsEventNotification 0000000180030538     continental_test_sfun_registry.obj
 0002:00001540       $unwind$ssCreateAndAddZcSignalInfo 0000000180030540     continental_test_sfun_registry.obj
 0002:00001548       $unwind$ssCloneAndAddZcSignalInfo 0000000180030548     continental_test_sfun_registry.obj
 0002:00001550       $unwind$ssGetNumZcSignals  0000000180030550     continental_test_sfun_registry.obj
 0002:00001558       $unwind$ssGetZcSignalVector 0000000180030558     continental_test_sfun_registry.obj
 0002:00001560       $unwind$ssGetZcSignalName  0000000180030560     continental_test_sfun_registry.obj
 0002:00001568       $unwind$ssGetZcSignalWidth 0000000180030568     continental_test_sfun_registry.obj
 0002:00001570       $unwind$ssGetZcSignalZcEventType 0000000180030570     continental_test_sfun_registry.obj
 0002:00001578       $unwind$ssGetZcSignalZcEvents 0000000180030578     continental_test_sfun_registry.obj
 0002:00001580       $unwind$ssGetZcSignalType  0000000180030580     continental_test_sfun_registry.obj
 0002:00001588       $unwind$ssGetZcSignalZcTol 0000000180030588     continental_test_sfun_registry.obj
 0002:00001590       $unwind$ssGetZcSignalNeedsEventNotification 0000000180030590     continental_test_sfun_registry.obj
 0002:00001598       $unwind$ssGetZcSignalIsZcElementDisc 0000000180030598     continental_test_sfun_registry.obj
 0002:000015a8       $unwind$ssGetIsInputPortElementContinuous 00000001800305a8     continental_test_sfun_registry.obj
 0002:000015b8       $unwind$ssGetDTypeIdFromMxArray 00000001800305b8     continental_test_sfun_registry.obj
 0002:000015c0       $unwind$ssWriteRTWStr      00000001800305c0     continental_test_sfun_registry.obj
 0002:000015c8       $unwind$ssWriteRTWNameValuePair 00000001800305c8     continental_test_sfun_registry.obj
 0002:000015d0       $unwind$ssWriteRTWParamSettings 00000001800305d0     continental_test_sfun_registry.obj
 0002:000015d8       $unwind$ssWriteRTWParameters 00000001800305d8     continental_test_sfun_registry.obj
 0002:000015e0       $unwind$ssWriteRTWWorkVect 00000001800305e0     continental_test_sfun_registry.obj
 0002:000015f4       $unwind$ssWriteRTWMxVectParam 00000001800305f4     continental_test_sfun_registry.obj
 0002:000015fc       $unwind$ssWriteRTWMx2dMatParam 00000001800305fc     continental_test_sfun_registry.obj
 0002:00001604       $unwind$_ssSetInputPortMatrixDimensions 0000000180030604     continental_test_sfun_registry.obj
 0002:00001610       $unwind$_ssSetOutputPortMatrixDimensions 0000000180030610     continental_test_sfun_registry.obj
 0002:0000161c       $unwind$_ssSetInputPortVectorDimension 000000018003061c     continental_test_sfun_registry.obj
 0002:00001628       $unwind$_ssSetOutputPortVectorDimension 0000000180030628     continental_test_sfun_registry.obj
 0002:00001634       $unwind$ssIsRunTimeParamTunable 0000000180030634     continental_test_sfun_registry.obj
 0002:0000163c       $unwind$ssGetSFuncBlockHandle 000000018003063c     continental_test_sfun_registry.obj
 0002:00001644       $unwind$_ssGetCurrentInputPortWidth 0000000180030644     continental_test_sfun_registry.obj
 0002:0000164c       $unwind$_ssGetCurrentOutputPortWidth 000000018003064c     continental_test_sfun_registry.obj
 0002:00001654       $unwind$_ssGetCallSystemNumFcnCallDestinations 0000000180030654     continental_test_sfun_registry.obj
 0002:0000165c       $unwind$ssWarning          000000018003065c     continental_test_sfun_registry.obj
 0002:00001670       $unwind$_ssGetAbsTol       0000000180030670     continental_test_sfun_registry.obj
 0002:00001678       $unwind$sf_process_check_sum_call 0000000180030678     continental_test_sfun_registry.obj
 0002:00001680       $unwind$sf_process_autoinheritance_call 0000000180030680     continental_test_sfun_registry.obj
 0002:00001690       $unwind$sf_process_get_third_party_uses_info_call 0000000180030690     continental_test_sfun_registry.obj
 0002:000016a0       $unwind$sf_process_get_updateBuildInfo_args_info_call 00000001800306a0     continental_test_sfun_registry.obj
 0002:000016b0       $unwind$sf_process_get_eml_resolved_functions_info_call 00000001800306b0     continental_test_sfun_registry.obj
 0002:000016c0       $unwind$sf_mex_unlock_call 00000001800306c0     continental_test_sfun_registry.obj
 0002:000016d0       $unwind$sf_debug_api_wrapper 00000001800306d0     continental_test_sfun_registry.obj
 0002:000016d8       $unwind$ProcessMexSfunctionCmdLineCall 00000001800306d8     continental_test_sfun_registry.obj
 0002:000016e0       $unwind$sf_machine_global_initializer_called 00000001800306e0     continental_test_sfun_registry.obj
 0002:000016e8       $unwind$sf_machine_global_method_dispatcher 00000001800306e8     continental_test_sfun_registry.obj
 0002:000016f0       $unwind$sf_machine_global_terminator 00000001800306f0     continental_test_sfun_registry.obj
 0002:000016f8       $unwind$sf_register_machine_exported_symbols 00000001800306f8     continental_test_sfun_registry.obj
 0002:00001700       $unwind$sf_machine_global_initializer 0000000180030700     continental_test_sfun_registry.obj
 0002:00001708       $unwind$getChartInfoFromSimStruct 0000000180030708     continental_test_sfun_registry.obj
 0002:00001710       $unwind$mdlGetSimState     0000000180030710     continental_test_sfun_registry.obj
 0002:00001718       $unwind$mdlSetSimState     0000000180030718     continental_test_sfun_registry.obj
 0002:00001720       $unwind$mdlSetWorkWidths   0000000180030720     continental_test_sfun_registry.obj
 0002:00001728       $unwind$mdlProcessParameters 0000000180030728     continental_test_sfun_registry.obj
 0002:00001730       $unwind$mdl_start_processing 0000000180030730     continental_test_sfun_registry.obj
 0002:00001738       $unwind$mdl_terminate_processing 0000000180030738     continental_test_sfun_registry.obj
 0002:00001740       $unwind$mdlStart           0000000180030740     continental_test_sfun_registry.obj
 0002:00001748       $unwind$mdlTerminate       0000000180030748     continental_test_sfun_registry.obj
 0002:00001750       $unwind$mdlInitializeSizes 0000000180030750     continental_test_sfun_registry.obj
 0002:00001758       $unwind$mdlInitializeSampleTimes 0000000180030758     continental_test_sfun_registry.obj
 0002:00001760       $unwind$mdl_outputs_continuous_legacy 0000000180030760     continental_test_sfun_registry.obj
 0002:00001768       $unwind$mdl_outputs_processing 0000000180030768     continental_test_sfun_registry.obj
 0002:00001770       $unwind$mdl_zeroCrossings_processing 0000000180030770     continental_test_sfun_registry.obj
 0002:00001778       $unwind$mdlZeroCrossings   0000000180030778     continental_test_sfun_registry.obj
 0002:00001780       $unwind$mdl_derivatives_processing 0000000180030780     continental_test_sfun_registry.obj
 0002:00001788       $unwind$mdlDerivatives     0000000180030788     continental_test_sfun_registry.obj
 0002:00001790       $unwind$mdl_initialize_conditions_processing 0000000180030790     continental_test_sfun_registry.obj
 0002:00001798       $unwind$mdlInitializeConditions 0000000180030798     continental_test_sfun_registry.obj
 0002:000017a0       $unwind$mdl_ext_mode_exec_processing 00000001800307a0     continental_test_sfun_registry.obj
 0002:000017a8       $unwind$mdlExtModeExec     00000001800307a8     continental_test_sfun_registry.obj
 0002:000017b0       $unwind$mdlRTW             00000001800307b0     continental_test_sfun_registry.obj
 0002:000017b8       $unwind$mdl_enable_processing 00000001800307b8     continental_test_sfun_registry.obj
 0002:000017c0       $unwind$mdlEnable          00000001800307c0     continental_test_sfun_registry.obj
 0002:000017c8       $unwind$mdl_disable_processing 00000001800307c8     continental_test_sfun_registry.obj
 0002:000017d0       $unwind$mdlDisable         00000001800307d0     continental_test_sfun_registry.obj
 0002:000017d8       $unwind$mdlOutputs         00000001800307d8     continental_test_sfun_registry.obj
 0002:000017e0       $unwind$ProcessMexSfunctionEveryCall 00000001800307e0     continental_test_sfun_registry.obj
 0002:000017e8       $unwind$_RegNumInputPortsCB 00000001800307e8     continental_test_sfun_registry.obj
 0002:000017f0       $unwind$_RegNumOutputPortsCB 00000001800307f0     continental_test_sfun_registry.obj
 0002:000017f8       $unwind$_CreateSimStruct   00000001800307f8     continental_test_sfun_registry.obj
 0002:00001800       $unwind$_ssFatalError      0000000180030800     continental_test_sfun_registry.obj
 0002:00001808       $unwind$_ProcessMexSfunctionCmdLineCall 0000000180030808     continental_test_sfun_registry.obj
 0002:00001818       $unwind$__report_securityfailure 0000000180030818     MSVCRT:gs_report.obj
 0002:00001820       $unwind$__report_securityfailureEx 0000000180030820     MSVCRT:gs_report.obj
 0002:00001828       $unwind$__report_rangecheckfailure 0000000180030828     MSVCRT:gs_report.obj
 0002:00001830       $unwind$__raise_securityfailure 0000000180030830     MSVCRT:gs_report.obj
 0002:00001838       $unwind$__report_gsfailure 0000000180030838     MSVCRT:gs_report.obj
 0002:00001840       $unwind$__GSHandlerCheckCommon 0000000180030840     MSVCRT:gshandler.obj
 0002:00001848       $unwind$__GSHandlerCheck   0000000180030848     MSVCRT:gshandler.obj
 0002:00001850       $xdatasym                  0000000180030850     MSVCRT:amdsecgs.obj
 0002:00001854       $unwind$_CRT_INIT          0000000180030854     MSVCRT:crtdll.obj
 0002:00001870       $unwind$pre_c_init         0000000180030870     MSVCRT:crtdll.obj
 0002:00001878       $unwind$__DllMainCRTStartup 0000000180030878     MSVCRT:crtdll.obj
 0002:000018b4       $unwind$__DllMainCRTStartup$filt$0 00000001800308b4     MSVCRT:crtdll.obj
 0002:000018bc       $unwind$__DllMainCRTStartup$fin$1 00000001800308bc     MSVCRT:crtdll.obj
 0002:000018c4       $unwind$_DllMainCRTStartup 00000001800308c4     MSVCRT:crtdll.obj
 0002:000018d4       $unwind$_IsNonwritableInCurrentImage 00000001800308d4     MSVCRT:pesect.obj
 0002:000018f8       $unwind$_IsNonwritableInCurrentImage$filt$0 00000001800308f8     MSVCRT:pesect.obj
 0002:00001900       $unwind$atexit             0000000180030900     MSVCRT:atonexit.obj
 0002:00001908       $unwind$_onexit            0000000180030908     MSVCRT:atonexit.obj
 0002:00001928       $unwind$_onexit$fin$0      0000000180030928     MSVCRT:atonexit.obj
 0002:00001930       $unwind$__atonexitinit     0000000180030930     MSVCRT:atonexit.obj
 0002:00001938       $unwind$__security_init_cookie 0000000180030938     MSVCRT:gs_support.obj
 0002:00001944       $unwind$DllMain            0000000180030944     MSVCRT:dllmain.obj
 0002:0000194c       $unwind$_RTC_Initialize    000000018003094c     MSVCRT:initsect.obj
 0002:00001958       $unwind$_RTC_Terminate     0000000180030958     MSVCRT:initsect.obj
 0002:0000260a       .idata$6                   000000018003160a     sf_runtime:sf_runtime.dll
 0002:00002750       .idata$6                   0000000180031750     libmx:libmx.dll
 0002:000027c8       .idata$6                   00000001800317c8     libmex:libmex.dll
 0002:000027ea       .idata$6                   00000001800317ea     libut:libut.dll
 0002:0000280a       .idata$6                   000000018003180a     libmwmathutil:libmwmathutil.dll
 0002:000028ee       .idata$6                   00000001800318ee     MSVCRT:MSVCR110.dll
 0002:00002a80       .idata$6                   0000000180031a80     kernel32:KERNEL32.dll
 0002:00002a90       .edata                     0000000180031a90     continental_test_sfun.exp
 0002:00002ab8       rgpv                       0000000180031ab8     continental_test_sfun.exp
 0002:00002abc       rgszName                   0000000180031abc     continental_test_sfun.exp
 0002:00002ac0       rgwOrd                     0000000180031ac0     continental_test_sfun.exp
 0002:00002ac2       szName                     0000000180031ac2     continental_test_sfun.exp
 0002:00002adf       $N00001                    0000000180031adf     continental_test_sfun.exp
 0003:00000000       $SG14365                   0000000180032000     continental_test_sfun.obj
 0003:00000008       $SG14402                   0000000180032008     continental_test_sfun.obj
 0003:00000028       $SG14414                   0000000180032028     continental_test_sfun.obj
 0003:00000040       $SG14419                   0000000180032040     continental_test_sfun.obj
 0003:00000058       $SG14424                   0000000180032058     continental_test_sfun.obj
 0003:00000070       $SG14429                   0000000180032070     continental_test_sfun.obj
 0003:00000088       $SG14434                   0000000180032088     continental_test_sfun.obj
 0003:000000a0       $SG14455                   00000001800320a0     continental_test_sfun.obj
 0003:000000c0       $SG14509                   00000001800320c0     continental_test_sfun.obj
 0003:000000e0       $SG14518                   00000001800320e0     continental_test_sfun.obj
 0003:000000f8       $SG14523                   00000001800320f8     continental_test_sfun.obj
 0003:00000110       $SG14528                   0000000180032110     continental_test_sfun.obj
 0003:00000128       $SG14533                   0000000180032128     continental_test_sfun.obj
 0003:00000140       $SG14538                   0000000180032140     continental_test_sfun.obj
 0003:00000158       $SG14563                   0000000180032158     continental_test_sfun.obj
 0003:00000178       $SG14572                   0000000180032178     continental_test_sfun.obj
 0003:00000190       $SG14577                   0000000180032190     continental_test_sfun.obj
 0003:000001a8       $SG14582                   00000001800321a8     continental_test_sfun.obj
 0003:000001c0       $SG14587                   00000001800321c0     continental_test_sfun.obj
 0003:000001d8       $SG14592                   00000001800321d8     continental_test_sfun.obj
 0003:000001f0       $SG14600                   00000001800321f0     continental_test_sfun.obj
 0003:000001f8       $SG14601                   00000001800321f8     continental_test_sfun.obj
 0003:00000210       $SG14612                   0000000180032210     continental_test_sfun.obj
 0003:00000228       $SG14613                   0000000180032228     continental_test_sfun.obj
 0003:00000240       $SG14288                   0000000180032240     continental_test_sfun.obj
 0003:00000258       $SG14294                   0000000180032258     continental_test_sfun.obj
 0003:00000260       $SG14305                   0000000180032260     continental_test_sfun.obj
 0003:00000270       $SG14316                   0000000180032270     continental_test_sfun.obj
 0003:0000027c       $SG14327                   000000018003227c     continental_test_sfun.obj
 0003:00000290       $SG17437                   0000000180032290     c1_continental_test.obj
 0003:000002a8       $SG17441                   00000001800322a8     c1_continental_test.obj
 0003:000002b8       $SG17460                   00000001800322b8     c1_continental_test.obj
 0003:000002d0       $SG17445                   00000001800322d0     c1_continental_test.obj
 0003:00000314       $SG16642                   0000000180032314     c1_continental_test.obj
 0003:00000318       $SG17462                   0000000180032318     c1_continental_test.obj
 0003:00000324       $SG17531                   0000000180032324     c1_continental_test.obj
 0003:00000330       $SG17466                   0000000180032330     c1_continental_test.obj
 0003:00000374       $SG16643                   0000000180032374     c1_continental_test.obj
 0003:00000378       $SG17538                   0000000180032378     c1_continental_test.obj
 0003:0000039c       $SG16644                   000000018003239c     c1_continental_test.obj
 0003:000003a0       $SG17559                   00000001800323a0     c1_continental_test.obj
 0003:000003b0       $SG17560                   00000001800323b0     c1_continental_test.obj
 0003:000003c4       $SG16647                   00000001800323c4     c1_continental_test.obj
 0003:000003c8       $SG17574                   00000001800323c8     c1_continental_test.obj
 0003:000003f8       $SG16645                   00000001800323f8     c1_continental_test.obj
 0003:00000400       $SG17599                   0000000180032400     c1_continental_test.obj
 0003:00000468       $SG16646                   0000000180032468     c1_continental_test.obj
 0003:00000470       c1_debug_family_names      0000000180032470     c1_continental_test.obj
 0003:000004c0       $SG16648                   00000001800324c0     c1_continental_test.obj
 0003:000004c4       $SG16649                   00000001800324c4     c1_continental_test.obj
 0003:000004cc       $SG16650                   00000001800324cc     c1_continental_test.obj
 0003:000004d4       $SG16651                   00000001800324d4     c1_continental_test.obj
 0003:000004dc       $SG16827                   00000001800324dc     c1_continental_test.obj
 0003:000004e0       $SG16829                   00000001800324e0     c1_continental_test.obj
 0003:000004e4       $SG16840                   00000001800324e4     c1_continental_test.obj
 0003:000004ec       $SG16985                   00000001800324ec     c1_continental_test.obj
 0003:000004f0       $SG16844                   00000001800324f0     c1_continental_test.obj
 0003:00000510       $SG17062                   0000000180032510     c1_continental_test.obj
 0003:00000514       $SG17078                   0000000180032514     c1_continental_test.obj
 0003:00000518       $SG17112                   0000000180032518     c1_continental_test.obj
 0003:00000528       $SG17128                   0000000180032528     c1_continental_test.obj
 0003:0000052c       $SG17202                   000000018003252c     c1_continental_test.obj
 0003:00000534       $SG17348                   0000000180032534     c1_continental_test.obj
 0003:00000538       $SG17200                   0000000180032538     c1_continental_test.obj
 0003:00000544       $SG17203                   0000000180032544     c1_continental_test.obj
 0003:0000054c       $SG17350                   000000018003254c     c1_continental_test.obj
 0003:00000550       $SG17201                   0000000180032550     c1_continental_test.obj
 0003:0000055c       $SG17208                   000000018003255c     c1_continental_test.obj
 0003:00000568       $SG17204                   0000000180032568     c1_continental_test.obj
 0003:00000578       $SG17205                   0000000180032578     c1_continental_test.obj
 0003:00000588       $SG17206                   0000000180032588     c1_continental_test.obj
 0003:00000590       $SG17207                   0000000180032590     c1_continental_test.obj
 0003:00000598       $SG17209                   0000000180032598     c1_continental_test.obj
 0003:000005a0       $SG17212                   00000001800325a0     c1_continental_test.obj
 0003:000005b8       $SG17213                   00000001800325b8     c1_continental_test.obj
 0003:000005c4       $SG17215                   00000001800325c4     c1_continental_test.obj
 0003:000005cc       $SG17216                   00000001800325cc     c1_continental_test.obj
 0003:000005d4       $SG17217                   00000001800325d4     c1_continental_test.obj
 0003:000005dc       $SG17218                   00000001800325dc     c1_continental_test.obj
 0003:000005e8       $SG17219                   00000001800325e8     c1_continental_test.obj
 0003:000005f8       $SG17220                   00000001800325f8     c1_continental_test.obj
 0003:00000604       $SG17226                   0000000180032604     c1_continental_test.obj
 0003:0000060c       $SG17228                   000000018003260c     c1_continental_test.obj
 0003:00000614       $SG17229                   0000000180032614     c1_continental_test.obj
 0003:0000061c       $SG17230                   000000018003261c     c1_continental_test.obj
 0003:00000624       $SG17231                   0000000180032624     c1_continental_test.obj
 0003:0000062c       $SG17233                   000000018003262c     c1_continental_test.obj
 0003:00000634       $SG17234                   0000000180032634     c1_continental_test.obj
 0003:0000063c       $SG17235                   000000018003263c     c1_continental_test.obj
 0003:00000648       $SG17236                   0000000180032648     c1_continental_test.obj
 0003:00000654       $SG17241                   0000000180032654     c1_continental_test.obj
 0003:0000065c       $SG17243                   000000018003265c     c1_continental_test.obj
 0003:00000664       $SG17244                   0000000180032664     c1_continental_test.obj
 0003:0000066c       $SG17245                   000000018003266c     c1_continental_test.obj
 0003:00000674       $SG17246                   0000000180032674     c1_continental_test.obj
 0003:0000067c       $SG17248                   000000018003267c     c1_continental_test.obj
 0003:00000684       $SG17249                   0000000180032684     c1_continental_test.obj
 0003:0000068c       $SG17250                   000000018003268c     c1_continental_test.obj
 0003:00000698       $SG17251                   0000000180032698     c1_continental_test.obj
 0003:000006a4       $SG17256                   00000001800326a4     c1_continental_test.obj
 0003:000006ac       $SG17258                   00000001800326ac     c1_continental_test.obj
 0003:000006b4       $SG17259                   00000001800326b4     c1_continental_test.obj
 0003:000006bc       $SG17260                   00000001800326bc     c1_continental_test.obj
 0003:000006c4       $SG17261                   00000001800326c4     c1_continental_test.obj
 0003:000006cc       $SG17263                   00000001800326cc     c1_continental_test.obj
 0003:000006d4       $SG17264                   00000001800326d4     c1_continental_test.obj
 0003:000006dc       $SG17265                   00000001800326dc     c1_continental_test.obj
 0003:000006e8       $SG17266                   00000001800326e8     c1_continental_test.obj
 0003:000006f4       $SG17271                   00000001800326f4     c1_continental_test.obj
 0003:000006fc       $SG17273                   00000001800326fc     c1_continental_test.obj
 0003:00000704       $SG17274                   0000000180032704     c1_continental_test.obj
 0003:0000070c       $SG17275                   000000018003270c     c1_continental_test.obj
 0003:00000714       $SG17276                   0000000180032714     c1_continental_test.obj
 0003:0000071c       $SG17278                   000000018003271c     c1_continental_test.obj
 0003:00000724       $SG17279                   0000000180032724     c1_continental_test.obj
 0003:0000072c       $SG17280                   000000018003272c     c1_continental_test.obj
 0003:00000738       $SG17281                   0000000180032738     c1_continental_test.obj
 0003:00000744       $SG17282                   0000000180032744     c1_continental_test.obj
 0003:00000750       $SG17283                   0000000180032750     c1_continental_test.obj
 0003:0000075c       $SG17285                   000000018003275c     c1_continental_test.obj
 0003:00000764       $SG17286                   0000000180032764     c1_continental_test.obj
 0003:0000076c       $SG17287                   000000018003276c     c1_continental_test.obj
 0003:00000774       $SG17288                   0000000180032774     c1_continental_test.obj
 0003:00000780       $SG17289                   0000000180032780     c1_continental_test.obj
 0003:00000790       $SG17290                   0000000180032790     c1_continental_test.obj
 0003:0000079c       $SG17296                   000000018003279c     c1_continental_test.obj
 0003:000007a4       $SG17298                   00000001800327a4     c1_continental_test.obj
 0003:000007ac       $SG17299                   00000001800327ac     c1_continental_test.obj
 0003:000007b4       $SG17300                   00000001800327b4     c1_continental_test.obj
 0003:000007bc       $SG17301                   00000001800327bc     c1_continental_test.obj
 0003:000007c4       $SG17303                   00000001800327c4     c1_continental_test.obj
 0003:000007cc       $SG17304                   00000001800327cc     c1_continental_test.obj
 0003:000007d4       $SG17305                   00000001800327d4     c1_continental_test.obj
 0003:000007e0       $SG17306                   00000001800327e0     c1_continental_test.obj
 0003:000007f0       $SG17307                   00000001800327f0     c1_continental_test.obj
 0003:000007f8       $SG17308                   00000001800327f8     c1_continental_test.obj
 0003:00000800       $SG17321                   0000000180032800     c1_continental_test.obj
 0003:00000810       $SG17322                   0000000180032810     c1_continental_test.obj
 0003:00000820       $SG17323                   0000000180032820     c1_continental_test.obj
 0003:00000828       $SG17324                   0000000180032828     c1_continental_test.obj
 0003:00000830       $SG17327                   0000000180032830     c1_continental_test.obj
 0003:000008a0       $SG17328                   00000001800328a0     c1_continental_test.obj
 0003:00000910       $SG17349                   0000000180032910     c1_continental_test.obj
 0003:00000918       $SG17351                   0000000180032918     c1_continental_test.obj
 0003:00000920       $SG17352                   0000000180032920     c1_continental_test.obj
 0003:00000928       $SG17358                   0000000180032928     c1_continental_test.obj
 0003:00000938       $SG17402                   0000000180032938     c1_continental_test.obj
 0003:00000950       $SG18433                   0000000180032950     c2_continental_test.obj
 0003:00000960       $SG18434                   0000000180032960     c2_continental_test.obj
 0003:00000978       $SG17414                   0000000180032978     c2_continental_test.obj
 0003:00000984       $SG17503                   0000000180032984     c2_continental_test.obj
 0003:0000098c       $SG17518                   000000018003298c     c2_continental_test.obj
 0003:00000990       $SG18448                   0000000180032990     c2_continental_test.obj
 0003:000009c0       $SG18473                   00000001800329c0     c2_continental_test.obj
 0003:00000a28       $SG17498                   0000000180032a28     c2_continental_test.obj
 0003:00000a30       $SG17499                   0000000180032a30     c2_continental_test.obj
 0003:00000a38       $SG17501                   0000000180032a38     c2_continental_test.obj
 0003:00000a40       $SG17502                   0000000180032a40     c2_continental_test.obj
 0003:00000a48       $SG17504                   0000000180032a48     c2_continental_test.obj
 0003:00000a58       $SG17505                   0000000180032a58     c2_continental_test.obj
 0003:00000a68       $SG17506                   0000000180032a68     c2_continental_test.obj
 0003:00000a70       $SG17507                   0000000180032a70     c2_continental_test.obj
 0003:00000a7c       $SG17519                   0000000180032a7c     c2_continental_test.obj
 0003:00000a80       $SG17508                   0000000180032a80     c2_continental_test.obj
 0003:00000a8c       $SG17520                   0000000180032a8c     c2_continental_test.obj
 0003:00000a90       $SG17509                   0000000180032a90     c2_continental_test.obj
 0003:00000ac8       $SG17510                   0000000180032ac8     c2_continental_test.obj
 0003:00000ad4       $SG17521                   0000000180032ad4     c2_continental_test.obj
 0003:00000ad8       $SG17511                   0000000180032ad8     c2_continental_test.obj
 0003:00000ae4       $SG17542                   0000000180032ae4     c2_continental_test.obj
 0003:00000ae8       $SG17512                   0000000180032ae8     c2_continental_test.obj
 0003:00000af4       $SG17543                   0000000180032af4     c2_continental_test.obj
 0003:00000af8       $SG17513                   0000000180032af8     c2_continental_test.obj
 0003:00000b04       $SG17544                   0000000180032b04     c2_continental_test.obj
 0003:00000b08       $SG17514                   0000000180032b08     c2_continental_test.obj
 0003:00000b14       $SG17545                   0000000180032b14     c2_continental_test.obj
 0003:00000b18       $SG17515                   0000000180032b18     c2_continental_test.obj
 0003:00000b24       $SG17566                   0000000180032b24     c2_continental_test.obj
 0003:00000b28       $SG17516                   0000000180032b28     c2_continental_test.obj
 0003:00000b34       $SG17567                   0000000180032b34     c2_continental_test.obj
 0003:00000b38       $SG17517                   0000000180032b38     c2_continental_test.obj
 0003:00000b44       $SG17568                   0000000180032b44     c2_continental_test.obj
 0003:00000b48       $SG17522                   0000000180032b48     c2_continental_test.obj
 0003:00000b50       $SG17523                   0000000180032b50     c2_continental_test.obj
 0003:00000b58       $SG17524                   0000000180032b58     c2_continental_test.obj
 0003:00000b90       $SG17525                   0000000180032b90     c2_continental_test.obj
 0003:00000b98       $SG17526                   0000000180032b98     c2_continental_test.obj
 0003:00000ba0       $SG17527                   0000000180032ba0     c2_continental_test.obj
 0003:00000bc0       $SG17528                   0000000180032bc0     c2_continental_test.obj
 0003:00000bd0       $SG17529                   0000000180032bd0     c2_continental_test.obj
 0003:00000be0       $SG17530                   0000000180032be0     c2_continental_test.obj
 0003:00000be8       $SG17531                   0000000180032be8     c2_continental_test.obj
 0003:00000bf4       $SG17554                   0000000180032bf4     c2_continental_test.obj
 0003:00000bfc       $SG17569                   0000000180032bfc     c2_continental_test.obj
 0003:00000c00       $SG17532                   0000000180032c00     c2_continental_test.obj
 0003:00000c10       $SG17533                   0000000180032c10     c2_continental_test.obj
 0003:00000c64       $SG17575                   0000000180032c64     c2_continental_test.obj
 0003:00000c6c       $SG17578                   0000000180032c6c     c2_continental_test.obj
 0003:00000c74       $SG17590                   0000000180032c74     c2_continental_test.obj
 0003:00000c78       $SG17534                   0000000180032c78     c2_continental_test.obj
 0003:00000c84       $SG17591                   0000000180032c84     c2_continental_test.obj
 0003:00000c88       $SG17535                   0000000180032c88     c2_continental_test.obj
 0003:00000c94       $SG17592                   0000000180032c94     c2_continental_test.obj
 0003:00000c98       $SG17536                   0000000180032c98     c2_continental_test.obj
 0003:00000ca4       $SG17593                   0000000180032ca4     c2_continental_test.obj
 0003:00000ca8       $SG17537                   0000000180032ca8     c2_continental_test.obj
 0003:00000cb4       $SG17614                   0000000180032cb4     c2_continental_test.obj
 0003:00000cb8       $SG17538                   0000000180032cb8     c2_continental_test.obj
 0003:00000cc4       $SG17615                   0000000180032cc4     c2_continental_test.obj
 0003:00000cc8       $SG17539                   0000000180032cc8     c2_continental_test.obj
 0003:00000cd4       $SG17616                   0000000180032cd4     c2_continental_test.obj
 0003:00000cd8       $SG17540                   0000000180032cd8     c2_continental_test.obj
 0003:00000ce4       $SG17617                   0000000180032ce4     c2_continental_test.obj
 0003:00000ce8       $SG17541                   0000000180032ce8     c2_continental_test.obj
 0003:00000cf4       $SG17638                   0000000180032cf4     c2_continental_test.obj
 0003:00000cf8       $SG17546                   0000000180032cf8     c2_continental_test.obj
 0003:00000d00       $SG17547                   0000000180032d00     c2_continental_test.obj
 0003:00000d08       $SG17548                   0000000180032d08     c2_continental_test.obj
 0003:00000d40       $SG17549                   0000000180032d40     c2_continental_test.obj
 0003:00000d48       $SG17550                   0000000180032d48     c2_continental_test.obj
 0003:00000d50       $SG17551                   0000000180032d50     c2_continental_test.obj
 0003:00000d5c       $SG17602                   0000000180032d5c     c2_continental_test.obj
 0003:00000d64       $SG17639                   0000000180032d64     c2_continental_test.obj
 0003:00000d68       $SG17552                   0000000180032d68     c2_continental_test.obj
 0003:00000d78       $SG17553                   0000000180032d78     c2_continental_test.obj
 0003:00000d88       $SG17555                   0000000180032d88     c2_continental_test.obj
 0003:00000d94       $SG17626                   0000000180032d94     c2_continental_test.obj
 0003:00000d9c       $SG17640                   0000000180032d9c     c2_continental_test.obj
 0003:00000da0       $SG17556                   0000000180032da0     c2_continental_test.obj
 0003:00000dac       $SG17641                   0000000180032dac     c2_continental_test.obj
 0003:00000db0       $SG17557                   0000000180032db0     c2_continental_test.obj
 0003:00000dec       $SG17662                   0000000180032dec     c2_continental_test.obj
 0003:00000df0       $SG17558                   0000000180032df0     c2_continental_test.obj
 0003:00000dfc       $SG17663                   0000000180032dfc     c2_continental_test.obj
 0003:00000e00       $SG17559                   0000000180032e00     c2_continental_test.obj
 0003:00000e0c       $SG17664                   0000000180032e0c     c2_continental_test.obj
 0003:00000e10       $SG17560                   0000000180032e10     c2_continental_test.obj
 0003:00000e1c       $SG17665                   0000000180032e1c     c2_continental_test.obj
 0003:00000e20       $SG17561                   0000000180032e20     c2_continental_test.obj
 0003:00000e2c       $SG16642                   0000000180032e2c     c2_continental_test.obj
 0003:00000e30       $SG17562                   0000000180032e30     c2_continental_test.obj
 0003:00000e3c       $SG16643                   0000000180032e3c     c2_continental_test.obj
 0003:00000e40       $SG17563                   0000000180032e40     c2_continental_test.obj
 0003:00000e4c       $SG16644                   0000000180032e4c     c2_continental_test.obj
 0003:00000e50       $SG17564                   0000000180032e50     c2_continental_test.obj
 0003:00000e5c       $SG16647                   0000000180032e5c     c2_continental_test.obj
 0003:00000e60       $SG17565                   0000000180032e60     c2_continental_test.obj
 0003:00000e6c       $SG16653                   0000000180032e6c     c2_continental_test.obj
 0003:00000e70       $SG17570                   0000000180032e70     c2_continental_test.obj
 0003:00000e78       $SG17571                   0000000180032e78     c2_continental_test.obj
 0003:00000e80       $SG17572                   0000000180032e80     c2_continental_test.obj
 0003:00000eb8       $SG17573                   0000000180032eb8     c2_continental_test.obj
 0003:00000ec0       $SG17574                   0000000180032ec0     c2_continental_test.obj
 0003:00000ec8       $SG17576                   0000000180032ec8     c2_continental_test.obj
 0003:00000ed8       $SG17577                   0000000180032ed8     c2_continental_test.obj
 0003:00000ee8       $SG17579                   0000000180032ee8     c2_continental_test.obj
 0003:00000ef4       $SG17650                   0000000180032ef4     c2_continental_test.obj
 0003:00000efc       $SG16654                   0000000180032efc     c2_continental_test.obj
 0003:00000f00       $SG17580                   0000000180032f00     c2_continental_test.obj
 0003:00000f0c       $SG16646                   0000000180032f0c     c2_continental_test.obj
 0003:00000f14       $SG17674                   0000000180032f14     c2_continental_test.obj
 0003:00000f1c       $SG17686                   0000000180032f1c     c2_continental_test.obj
 0003:00000f20       $SG17581                   0000000180032f20     c2_continental_test.obj
 0003:00000f58       $SG17582                   0000000180032f58     c2_continental_test.obj
 0003:00000f64       $SG17687                   0000000180032f64     c2_continental_test.obj
 0003:00000f68       $SG17583                   0000000180032f68     c2_continental_test.obj
 0003:00000f74       $SG17688                   0000000180032f74     c2_continental_test.obj
 0003:00000f78       $SG17584                   0000000180032f78     c2_continental_test.obj
 0003:00000f84       $SG17689                   0000000180032f84     c2_continental_test.obj
 0003:00000f88       $SG17585                   0000000180032f88     c2_continental_test.obj
 0003:00000f94       $SG17710                   0000000180032f94     c2_continental_test.obj
 0003:00000f98       $SG17586                   0000000180032f98     c2_continental_test.obj
 0003:00000fa4       $SG17711                   0000000180032fa4     c2_continental_test.obj
 0003:00000fa8       $SG17587                   0000000180032fa8     c2_continental_test.obj
 0003:00000fb4       $SG17712                   0000000180032fb4     c2_continental_test.obj
 0003:00000fb8       $SG17588                   0000000180032fb8     c2_continental_test.obj
 0003:00000fc4       $SG17713                   0000000180032fc4     c2_continental_test.obj
 0003:00000fc8       $SG17589                   0000000180032fc8     c2_continental_test.obj
 0003:00000fd4       $SG17734                   0000000180032fd4     c2_continental_test.obj
 0003:00000fd8       $SG17594                   0000000180032fd8     c2_continental_test.obj
 0003:00000fe0       $SG17595                   0000000180032fe0     c2_continental_test.obj
 0003:00000fe8       $SG17596                   0000000180032fe8     c2_continental_test.obj
 0003:00001020       $SG17597                   0000000180033020     c2_continental_test.obj
 0003:00001028       $SG17598                   0000000180033028     c2_continental_test.obj
 0003:00001030       $SG17599                   0000000180033030     c2_continental_test.obj
 0003:00001050       $SG17600                   0000000180033050     c2_continental_test.obj
 0003:00001060       $SG17601                   0000000180033060     c2_continental_test.obj
 0003:00001070       $SG17603                   0000000180033070     c2_continental_test.obj
 0003:0000107c       $SG16650                   000000018003307c     c2_continental_test.obj
 0003:00001084       $SG17735                   0000000180033084     c2_continental_test.obj
 0003:00001088       $SG17604                   0000000180033088     c2_continental_test.obj
 0003:00001098       $SG17606                   0000000180033098     c2_continental_test.obj
 0003:000010a8       $SG17610                   00000001800330a8     c2_continental_test.obj
 0003:000010b4       $SG17621                   00000001800330b4     c2_continental_test.obj
 0003:000010c0       $SG17605                   00000001800330c0     c2_continental_test.obj
 0003:00001114       $SG17698                   0000000180033114     c2_continental_test.obj
 0003:0000111c       $SG17736                   000000018003311c     c2_continental_test.obj
 0003:00001120       $SG17607                   0000000180033120     c2_continental_test.obj
 0003:0000112c       $SG17737                   000000018003312c     c2_continental_test.obj
 0003:00001130       $SG17608                   0000000180033130     c2_continental_test.obj
 0003:0000113c       $SG17758                   000000018003313c     c2_continental_test.obj
 0003:00001140       $SG17609                   0000000180033140     c2_continental_test.obj
 0003:0000114c       $SG17759                   000000018003314c     c2_continental_test.obj
 0003:00001150       $SG17611                   0000000180033150     c2_continental_test.obj
 0003:0000115c       $SG17760                   000000018003315c     c2_continental_test.obj
 0003:00001160       $SG17612                   0000000180033160     c2_continental_test.obj
 0003:0000116c       $SG17761                   000000018003316c     c2_continental_test.obj
 0003:00001170       $SG17613                   0000000180033170     c2_continental_test.obj
 0003:0000117c       $SG17782                   000000018003317c     c2_continental_test.obj
 0003:00001180       $SG17618                   0000000180033180     c2_continental_test.obj
 0003:00001188       $SG17619                   0000000180033188     c2_continental_test.obj
 0003:00001190       $SG17620                   0000000180033190     c2_continental_test.obj
 0003:000011d0       $SG17622                   00000001800331d0     c2_continental_test.obj
 0003:000011d8       $SG17623                   00000001800331d8     c2_continental_test.obj
 0003:000011e8       $SG17624                   00000001800331e8     c2_continental_test.obj
 0003:000011f8       $SG17625                   00000001800331f8     c2_continental_test.obj
 0003:00001208       $SG17627                   0000000180033208     c2_continental_test.obj
 0003:00001214       $SG17719                   0000000180033214     c2_continental_test.obj
 0003:0000121c       $SG17722                   000000018003321c     c2_continental_test.obj
 0003:00001224       $SG17783                   0000000180033224     c2_continental_test.obj
 0003:00001228       $SG17628                   0000000180033228     c2_continental_test.obj
 0003:00001234       $SG17746                   0000000180033234     c2_continental_test.obj
 0003:0000123c       $SG17784                   000000018003323c     c2_continental_test.obj
 0003:00001240       $SG17629                   0000000180033240     c2_continental_test.obj
 0003:00001280       $SG17630                   0000000180033280     c2_continental_test.obj
 0003:0000128c       $SG17785                   000000018003328c     c2_continental_test.obj
 0003:00001290       $SG17631                   0000000180033290     c2_continental_test.obj
 0003:0000129c       $SG17806                   000000018003329c     c2_continental_test.obj
 0003:000012a0       $SG17632                   00000001800332a0     c2_continental_test.obj
 0003:000012ac       $SG17807                   00000001800332ac     c2_continental_test.obj
 0003:000012b0       $SG17633                   00000001800332b0     c2_continental_test.obj
 0003:000012bc       $SG17808                   00000001800332bc     c2_continental_test.obj
 0003:000012c0       $SG17634                   00000001800332c0     c2_continental_test.obj
 0003:000012cc       $SG17809                   00000001800332cc     c2_continental_test.obj
 0003:000012d0       $SG17635                   00000001800332d0     c2_continental_test.obj
 0003:000012dc       $SG17830                   00000001800332dc     c2_continental_test.obj
 0003:000012e0       $SG17636                   00000001800332e0     c2_continental_test.obj
 0003:000012ec       $SG17831                   00000001800332ec     c2_continental_test.obj
 0003:000012f0       $SG17637                   00000001800332f0     c2_continental_test.obj
 0003:000012fc       $SG17832                   00000001800332fc     c2_continental_test.obj
 0003:00001300       $SG17642                   0000000180033300     c2_continental_test.obj
 0003:00001308       $SG17643                   0000000180033308     c2_continental_test.obj
 0003:00001310       $SG17644                   0000000180033310     c2_continental_test.obj
 0003:00001350       $SG17645                   0000000180033350     c2_continental_test.obj
 0003:00001358       $SG17646                   0000000180033358     c2_continental_test.obj
 0003:00001360       $SG17647                   0000000180033360     c2_continental_test.obj
 0003:00001378       $SG17648                   0000000180033378     c2_continental_test.obj
 0003:00001388       $SG17649                   0000000180033388     c2_continental_test.obj
 0003:00001398       $SG17651                   0000000180033398     c2_continental_test.obj
 0003:000013a4       $SG17770                   00000001800333a4     c2_continental_test.obj
 0003:000013ac       $SG17833                   00000001800333ac     c2_continental_test.obj
 0003:000013b0       $SG17652                   00000001800333b0     c2_continental_test.obj
 0003:000013c0       $SG17653                   00000001800333c0     c2_continental_test.obj
 0003:00001404       $SG17794                   0000000180033404     c2_continental_test.obj
 0003:0000140c       $SG17854                   000000018003340c     c2_continental_test.obj
 0003:00001410       $SG17654                   0000000180033410     c2_continental_test.obj
 0003:0000141c       $SG17855                   000000018003341c     c2_continental_test.obj
 0003:00001420       $SG17655                   0000000180033420     c2_continental_test.obj
 0003:0000142c       $SG17856                   000000018003342c     c2_continental_test.obj
 0003:00001430       $SG17656                   0000000180033430     c2_continental_test.obj
 0003:0000143c       $SG17857                   000000018003343c     c2_continental_test.obj
 0003:00001440       $SG17657                   0000000180033440     c2_continental_test.obj
 0003:0000144c       $SG16846                   000000018003344c     c2_continental_test.obj
 0003:00001450       $SG17658                   0000000180033450     c2_continental_test.obj
 0003:0000145c       $SG16848                   000000018003345c     c2_continental_test.obj
 0003:00001460       $SG17659                   0000000180033460     c2_continental_test.obj
 0003:0000146c       $SG17878                   000000018003346c     c2_continental_test.obj
 0003:00001470       $SG17660                   0000000180033470     c2_continental_test.obj
 0003:0000147c       $SG17879                   000000018003347c     c2_continental_test.obj
 0003:00001480       $SG17661                   0000000180033480     c2_continental_test.obj
 0003:00001490       c2_debug_family_names      0000000180033490     c2_continental_test.obj
 0003:00001500       $SG17666                   0000000180033500     c2_continental_test.obj
 0003:00001508       $SG17667                   0000000180033508     c2_continental_test.obj
 0003:00001510       $SG17668                   0000000180033510     c2_continental_test.obj
 0003:00001550       $SG17669                   0000000180033550     c2_continental_test.obj
 0003:00001558       $SG16645                   0000000180033558     c2_continental_test.obj
 0003:00001564       $SG17670                   0000000180033564     c2_continental_test.obj
 0003:0000156c       $SG17818                   000000018003356c     c2_continental_test.obj
 0003:00001574       $SG17880                   0000000180033574     c2_continental_test.obj
 0003:00001578       $SG17671                   0000000180033578     c2_continental_test.obj
 0003:0000158c       $SG17866                   000000018003358c     c2_continental_test.obj
 0003:00001594       $SG17881                   0000000180033594     c2_continental_test.obj
 0003:00001598       $SG17672                   0000000180033598     c2_continental_test.obj
 0003:000015a8       $SG16648                   00000001800335a8     c2_continental_test.obj
 0003:000015b4       $SG17890                   00000001800335b4     c2_continental_test.obj
 0003:000015bc       $SG17902                   00000001800335bc     c2_continental_test.obj
 0003:000015c0       $SG17673                   00000001800335c0     c2_continental_test.obj
 0003:000015d0       $SG16649                   00000001800335d0     c2_continental_test.obj
 0003:000015e0       $SG17675                   00000001800335e0     c2_continental_test.obj
 0003:000015ec       $SG17903                   00000001800335ec     c2_continental_test.obj
 0003:000015f0       $SG16651                   00000001800335f0     c2_continental_test.obj
 0003:000015f8       $SG17676                   00000001800335f8     c2_continental_test.obj
 0003:00001604       $SG16652                   0000000180033604     c2_continental_test.obj
 0003:00001610       $SG17677                   0000000180033610     c2_continental_test.obj
 0003:00001654       $SG17904                   0000000180033654     c2_continental_test.obj
 0003:00001658       $SG17678                   0000000180033658     c2_continental_test.obj
 0003:00001664       $SG17905                   0000000180033664     c2_continental_test.obj
 0003:00001668       $SG17679                   0000000180033668     c2_continental_test.obj
 0003:00001674       $SG16655                   0000000180033674     c2_continental_test.obj
 0003:0000167c       $SG17914                   000000018003367c     c2_continental_test.obj
 0003:00001684       $SG17926                   0000000180033684     c2_continental_test.obj
 0003:00001688       $SG17680                   0000000180033688     c2_continental_test.obj
 0003:00001694       $SG17927                   0000000180033694     c2_continental_test.obj
 0003:00001698       $SG17681                   0000000180033698     c2_continental_test.obj
 0003:000016a4       $SG17928                   00000001800336a4     c2_continental_test.obj
 0003:000016a8       $SG17682                   00000001800336a8     c2_continental_test.obj
 0003:000016b4       $SG17929                   00000001800336b4     c2_continental_test.obj
 0003:000016b8       $SG17683                   00000001800336b8     c2_continental_test.obj
 0003:000016c4       $SG17950                   00000001800336c4     c2_continental_test.obj
 0003:000016c8       $SG17684                   00000001800336c8     c2_continental_test.obj
 0003:000016d4       $SG17951                   00000001800336d4     c2_continental_test.obj
 0003:000016d8       $SG17685                   00000001800336d8     c2_continental_test.obj
 0003:000016e4       $SG17952                   00000001800336e4     c2_continental_test.obj
 0003:000016e8       $SG17690                   00000001800336e8     c2_continental_test.obj
 0003:000016f0       $SG17691                   00000001800336f0     c2_continental_test.obj
 0003:000016f8       $SG17693                   00000001800336f8     c2_continental_test.obj
 0003:00001700       $SG17692                   0000000180033700     c2_continental_test.obj
 0003:00001744       $SG17694                   0000000180033744     c2_continental_test.obj
 0003:0000174c       $SG17938                   000000018003374c     c2_continental_test.obj
 0003:00001754       $SG17953                   0000000180033754     c2_continental_test.obj
 0003:00001758       $SG17695                   0000000180033758     c2_continental_test.obj
 0003:00001774       $SG17974                   0000000180033774     c2_continental_test.obj
 0003:00001778       $SG17696                   0000000180033778     c2_continental_test.obj
 0003:00001788       $SG17697                   0000000180033788     c2_continental_test.obj
 0003:00001798       $SG17699                   0000000180033798     c2_continental_test.obj
 0003:000017a4       $SG17962                   00000001800337a4     c2_continental_test.obj
 0003:000017ac       $SG17975                   00000001800337ac     c2_continental_test.obj
 0003:000017b0       $SG17700                   00000001800337b0     c2_continental_test.obj
 0003:000017c0       $SG17701                   00000001800337c0     c2_continental_test.obj
 0003:00001808       $SG17702                   0000000180033808     c2_continental_test.obj
 0003:00001814       $SG17976                   0000000180033814     c2_continental_test.obj
 0003:00001818       $SG17703                   0000000180033818     c2_continental_test.obj
 0003:00001824       $SG17977                   0000000180033824     c2_continental_test.obj
 0003:00001828       $SG17704                   0000000180033828     c2_continental_test.obj
 0003:00001834       $SG16956                   0000000180033834     c2_continental_test.obj
 0003:00001838       $SG17705                   0000000180033838     c2_continental_test.obj
 0003:00001844       $SG17984                   0000000180033844     c2_continental_test.obj
 0003:00001848       $SG17706                   0000000180033848     c2_continental_test.obj
 0003:00001854       $SG17991                   0000000180033854     c2_continental_test.obj
 0003:00001858       $SG17707                   0000000180033858     c2_continental_test.obj
 0003:00001864       $SG16968                   0000000180033864     c2_continental_test.obj
 0003:00001868       $SG17708                   0000000180033868     c2_continental_test.obj
 0003:00001874       $SG18020                   0000000180033874     c2_continental_test.obj
 0003:00001878       $SG17709                   0000000180033878     c2_continental_test.obj
 0003:00001884       $SG17008                   0000000180033884     c2_continental_test.obj
 0003:00001888       $SG17714                   0000000180033888     c2_continental_test.obj
 0003:00001890       $SG17715                   0000000180033890     c2_continental_test.obj
 0003:00001898       $SG17716                   0000000180033898     c2_continental_test.obj
 0003:000018d8       $SG17717                   00000001800338d8     c2_continental_test.obj
 0003:000018e0       $SG17718                   00000001800338e0     c2_continental_test.obj
 0003:000018e8       $SG17720                   00000001800338e8     c2_continental_test.obj
 0003:000018f8       $SG17721                   00000001800338f8     c2_continental_test.obj
 0003:00001908       $SG17723                   0000000180033908     c2_continental_test.obj
 0003:00001914       $SG17010                   0000000180033914     c2_continental_test.obj
 0003:00001918       $SG17724                   0000000180033918     c2_continental_test.obj
 0003:00001924       $SG17026                   0000000180033924     c2_continental_test.obj
 0003:00001928       $SG17725                   0000000180033928     c2_continental_test.obj
 0003:00001960       $SG17726                   0000000180033960     c2_continental_test.obj
 0003:0000196c       $SG17028                   000000018003396c     c2_continental_test.obj
 0003:00001970       $SG17727                   0000000180033970     c2_continental_test.obj
 0003:0000197c       $SG17048                   000000018003397c     c2_continental_test.obj
 0003:00001980       $SG17728                   0000000180033980     c2_continental_test.obj
 0003:0000198c       $SG17050                   000000018003398c     c2_continental_test.obj
 0003:00001990       $SG17729                   0000000180033990     c2_continental_test.obj
 0003:0000199c       $SG17059                   000000018003399c     c2_continental_test.obj
 0003:000019a0       $SG17730                   00000001800339a0     c2_continental_test.obj
 0003:000019ac       $SG17078                   00000001800339ac     c2_continental_test.obj
 0003:000019b0       $SG17731                   00000001800339b0     c2_continental_test.obj
 0003:000019bc       $SG17080                   00000001800339bc     c2_continental_test.obj
 0003:000019c0       $SG17732                   00000001800339c0     c2_continental_test.obj
 0003:000019cc       $SG17089                   00000001800339cc     c2_continental_test.obj
 0003:000019d0       $SG17733                   00000001800339d0     c2_continental_test.obj
 0003:000019dc       $SG17099                   00000001800339dc     c2_continental_test.obj
 0003:000019e0       $SG17738                   00000001800339e0     c2_continental_test.obj
 0003:000019e8       $SG17739                   00000001800339e8     c2_continental_test.obj
 0003:000019f0       $SG17740                   00000001800339f0     c2_continental_test.obj
 0003:00001a28       $SG17741                   0000000180033a28     c2_continental_test.obj
 0003:00001a30       $SG17742                   0000000180033a30     c2_continental_test.obj
 0003:00001a38       $SG17743                   0000000180033a38     c2_continental_test.obj
 0003:00001a58       $SG17744                   0000000180033a58     c2_continental_test.obj
 0003:00001a68       $SG17745                   0000000180033a68     c2_continental_test.obj
 0003:00001a78       $SG17747                   0000000180033a78     c2_continental_test.obj
 0003:00001a84       $SG18094                   0000000180033a84     c2_continental_test.obj
 0003:00001a8c       $SG17109                   0000000180033a8c     c2_continental_test.obj
 0003:00001a90       $SG17748                   0000000180033a90     c2_continental_test.obj
 0003:00001aa0       $SG17749                   0000000180033aa0     c2_continental_test.obj
 0003:00001af4       $SG18095                   0000000180033af4     c2_continental_test.obj
 0003:00001afc       $SG17125                   0000000180033afc     c2_continental_test.obj
 0003:00001b00       $SG17750                   0000000180033b00     c2_continental_test.obj
 0003:00001b0c       $SG17127                   0000000180033b0c     c2_continental_test.obj
 0003:00001b10       $SG17751                   0000000180033b10     c2_continental_test.obj
 0003:00001b1c       $SG17145                   0000000180033b1c     c2_continental_test.obj
 0003:00001b20       $SG17752                   0000000180033b20     c2_continental_test.obj
 0003:00001b2c       $SG17147                   0000000180033b2c     c2_continental_test.obj
 0003:00001b30       $SG17753                   0000000180033b30     c2_continental_test.obj
 0003:00001b3c       $SG17156                   0000000180033b3c     c2_continental_test.obj
 0003:00001b40       $SG17754                   0000000180033b40     c2_continental_test.obj
 0003:00001b4c       $SG17174                   0000000180033b4c     c2_continental_test.obj
 0003:00001b50       $SG17755                   0000000180033b50     c2_continental_test.obj
 0003:00001b5c       $SG17176                   0000000180033b5c     c2_continental_test.obj
 0003:00001b60       $SG17756                   0000000180033b60     c2_continental_test.obj
 0003:00001b6c       $SG17185                   0000000180033b6c     c2_continental_test.obj
 0003:00001b70       $SG17757                   0000000180033b70     c2_continental_test.obj
 0003:00001b7c       $SG18227                   0000000180033b7c     c2_continental_test.obj
 0003:00001b80       $SG17762                   0000000180033b80     c2_continental_test.obj
 0003:00001b88       $SG17763                   0000000180033b88     c2_continental_test.obj
 0003:00001b90       $SG17764                   0000000180033b90     c2_continental_test.obj
 0003:00001bc8       $SG17765                   0000000180033bc8     c2_continental_test.obj
 0003:00001bd0       $SG17766                   0000000180033bd0     c2_continental_test.obj
 0003:00001bd8       $SG17767                   0000000180033bd8     c2_continental_test.obj
 0003:00001bec       $SG18100                   0000000180033bec     c2_continental_test.obj
 0003:00001bf4       $SG18228                   0000000180033bf4     c2_continental_test.obj
 0003:00001bf8       $SG17768                   0000000180033bf8     c2_continental_test.obj
 0003:00001c08       $SG17769                   0000000180033c08     c2_continental_test.obj
 0003:00001c18       $SG17771                   0000000180033c18     c2_continental_test.obj
 0003:00001c24       $SG18101                   0000000180033c24     c2_continental_test.obj
 0003:00001c2c       $SG17204                   0000000180033c2c     c2_continental_test.obj
 0003:00001c30       $SG17772                   0000000180033c30     c2_continental_test.obj
 0003:00001c40       $SG17773                   0000000180033c40     c2_continental_test.obj
 0003:00001c84       $SG17206                   0000000180033c84     c2_continental_test.obj
 0003:00001c88       $SG17774                   0000000180033c88     c2_continental_test.obj
 0003:00001c94       $SG17215                   0000000180033c94     c2_continental_test.obj
 0003:00001c98       $SG17775                   0000000180033c98     c2_continental_test.obj
 0003:00001ca4       $SG17234                   0000000180033ca4     c2_continental_test.obj
 0003:00001ca8       $SG17776                   0000000180033ca8     c2_continental_test.obj
 0003:00001cb4       $SG17236                   0000000180033cb4     c2_continental_test.obj
 0003:00001cb8       $SG17777                   0000000180033cb8     c2_continental_test.obj
 0003:00001cc4       $SG17245                   0000000180033cc4     c2_continental_test.obj
 0003:00001cc8       $SG17778                   0000000180033cc8     c2_continental_test.obj
 0003:00001cd4       $SG17255                   0000000180033cd4     c2_continental_test.obj
 0003:00001cd8       $SG17779                   0000000180033cd8     c2_continental_test.obj
 0003:00001ce4       $SG17313                   0000000180033ce4     c2_continental_test.obj
 0003:00001ce8       $SG17780                   0000000180033ce8     c2_continental_test.obj
 0003:00001cf4       $SG17381                   0000000180033cf4     c2_continental_test.obj
 0003:00001cf8       $SG17781                   0000000180033cf8     c2_continental_test.obj
 0003:00001d08       $SG17786                   0000000180033d08     c2_continental_test.obj
 0003:00001d10       $SG17787                   0000000180033d10     c2_continental_test.obj
 0003:00001d18       $SG17789                   0000000180033d18     c2_continental_test.obj
 0003:00001d20       $SG17788                   0000000180033d20     c2_continental_test.obj
 0003:00001d6c       $SG17790                   0000000180033d6c     c2_continental_test.obj
 0003:00001d78       $SG17791                   0000000180033d78     c2_continental_test.obj
 0003:00001d88       $SG17792                   0000000180033d88     c2_continental_test.obj
 0003:00001d98       $SG17793                   0000000180033d98     c2_continental_test.obj
 0003:00001da8       $SG17795                   0000000180033da8     c2_continental_test.obj
 0003:00001db8       $SG17796                   0000000180033db8     c2_continental_test.obj
 0003:00001dc8       $SG17797                   0000000180033dc8     c2_continental_test.obj
 0003:00001e08       $SG17798                   0000000180033e08     c2_continental_test.obj
 0003:00001e18       $SG17799                   0000000180033e18     c2_continental_test.obj
 0003:00001e28       $SG17800                   0000000180033e28     c2_continental_test.obj
 0003:00001e38       $SG17801                   0000000180033e38     c2_continental_test.obj
 0003:00001e48       $SG17802                   0000000180033e48     c2_continental_test.obj
 0003:00001e58       $SG17803                   0000000180033e58     c2_continental_test.obj
 0003:00001e68       $SG17804                   0000000180033e68     c2_continental_test.obj
 0003:00001e78       $SG17805                   0000000180033e78     c2_continental_test.obj
 0003:00001e88       $SG17810                   0000000180033e88     c2_continental_test.obj
 0003:00001e90       $SG17811                   0000000180033e90     c2_continental_test.obj
 0003:00001e98       $SG17813                   0000000180033e98     c2_continental_test.obj
 0003:00001ea0       $SG17814                   0000000180033ea0     c2_continental_test.obj
 0003:00001ea8       $SG17815                   0000000180033ea8     c2_continental_test.obj
 0003:00001eb8       $SG17816                   0000000180033eb8     c2_continental_test.obj
 0003:00001ec8       $SG17817                   0000000180033ec8     c2_continental_test.obj
 0003:00001ed8       $SG17819                   0000000180033ed8     c2_continental_test.obj
 0003:00001ee8       $SG17820                   0000000180033ee8     c2_continental_test.obj
 0003:00001ef8       $SG17821                   0000000180033ef8     c2_continental_test.obj
 0003:00001f38       $SG17822                   0000000180033f38     c2_continental_test.obj
 0003:00001f48       $SG17823                   0000000180033f48     c2_continental_test.obj
 0003:00001f58       $SG17824                   0000000180033f58     c2_continental_test.obj
 0003:00001f68       $SG17825                   0000000180033f68     c2_continental_test.obj
 0003:00001f78       $SG17826                   0000000180033f78     c2_continental_test.obj
 0003:00001f88       $SG17827                   0000000180033f88     c2_continental_test.obj
 0003:00001f98       $SG17828                   0000000180033f98     c2_continental_test.obj
 0003:00001fa8       $SG17829                   0000000180033fa8     c2_continental_test.obj
 0003:00001fb8       $SG17834                   0000000180033fb8     c2_continental_test.obj
 0003:00001fc0       $SG17835                   0000000180033fc0     c2_continental_test.obj
 0003:00001fc8       $SG17836                   0000000180033fc8     c2_continental_test.obj
 0003:00002004       $SG17837                   0000000180034004     c2_continental_test.obj
 0003:0000200c       $SG17838                   000000018003400c     c2_continental_test.obj
 0003:00002018       $SG17839                   0000000180034018     c2_continental_test.obj
 0003:00002030       $SG17840                   0000000180034030     c2_continental_test.obj
 0003:00002040       $SG17841                   0000000180034040     c2_continental_test.obj
 0003:00002050       $SG17842                   0000000180034050     c2_continental_test.obj
 0003:00002058       $SG17843                   0000000180034058     c2_continental_test.obj
 0003:00002068       $SG17844                   0000000180034068     c2_continental_test.obj
 0003:00002078       $SG17846                   0000000180034078     c2_continental_test.obj
 0003:00002088       $SG17850                   0000000180034088     c2_continental_test.obj
 0003:00002094       $SG17861                   0000000180034094     c2_continental_test.obj
 0003:000020a0       $SG17845                   00000001800340a0     c2_continental_test.obj
 0003:000020e8       $SG17847                   00000001800340e8     c2_continental_test.obj
 0003:000020f8       $SG17848                   00000001800340f8     c2_continental_test.obj
 0003:00002108       $SG17849                   0000000180034108     c2_continental_test.obj
 0003:00002118       $SG17851                   0000000180034118     c2_continental_test.obj
 0003:00002128       $SG17852                   0000000180034128     c2_continental_test.obj
 0003:00002138       $SG17853                   0000000180034138     c2_continental_test.obj
 0003:00002148       $SG17858                   0000000180034148     c2_continental_test.obj
 0003:00002150       $SG17859                   0000000180034150     c2_continental_test.obj
 0003:00002158       $SG17860                   0000000180034158     c2_continental_test.obj
 0003:00002194       $SG17862                   0000000180034194     c2_continental_test.obj
 0003:000021a0       $SG17863                   00000001800341a0     c2_continental_test.obj
 0003:000021a8       $SG17864                   00000001800341a8     c2_continental_test.obj
 0003:000021b8       $SG17865                   00000001800341b8     c2_continental_test.obj
 0003:000021c8       $SG17867                   00000001800341c8     c2_continental_test.obj
 0003:000021d8       $SG17868                   00000001800341d8     c2_continental_test.obj
 0003:000021e8       $SG17869                   00000001800341e8     c2_continental_test.obj
 0003:00002220       $SG17870                   0000000180034220     c2_continental_test.obj
 0003:00002230       $SG17871                   0000000180034230     c2_continental_test.obj
 0003:00002240       $SG17872                   0000000180034240     c2_continental_test.obj
 0003:00002250       $SG17873                   0000000180034250     c2_continental_test.obj
 0003:00002260       $SG17874                   0000000180034260     c2_continental_test.obj
 0003:00002270       $SG17875                   0000000180034270     c2_continental_test.obj
 0003:00002280       $SG17876                   0000000180034280     c2_continental_test.obj
 0003:00002290       $SG17877                   0000000180034290     c2_continental_test.obj
 0003:000022a0       $SG17882                   00000001800342a0     c2_continental_test.obj
 0003:000022a8       $SG17883                   00000001800342a8     c2_continental_test.obj
 0003:000022b0       $SG16859                   00000001800342b0     c2_continental_test.obj
 0003:000022b8       $SG17884                   00000001800342b8     c2_continental_test.obj
 0003:000022f0       $SG17885                   00000001800342f0     c2_continental_test.obj
 0003:000022f8       $SG17886                   00000001800342f8     c2_continental_test.obj
 0003:00002300       $SG17887                   0000000180034300     c2_continental_test.obj
 0003:00002320       $SG16863                   0000000180034320     c2_continental_test.obj
 0003:00002340       $SG17888                   0000000180034340     c2_continental_test.obj
 0003:00002350       $SG17889                   0000000180034350     c2_continental_test.obj
 0003:00002360       $SG17891                   0000000180034360     c2_continental_test.obj
 0003:00002370       $SG17892                   0000000180034370     c2_continental_test.obj
 0003:00002380       $SG17893                   0000000180034380     c2_continental_test.obj
 0003:000023d8       $SG17894                   00000001800343d8     c2_continental_test.obj
 0003:000023e8       $SG17895                   00000001800343e8     c2_continental_test.obj
 0003:000023f8       $SG17896                   00000001800343f8     c2_continental_test.obj
 0003:00002408       $SG17897                   0000000180034408     c2_continental_test.obj
 0003:00002418       $SG17898                   0000000180034418     c2_continental_test.obj
 0003:00002428       $SG17899                   0000000180034428     c2_continental_test.obj
 0003:00002438       $SG17900                   0000000180034438     c2_continental_test.obj
 0003:00002448       $SG17901                   0000000180034448     c2_continental_test.obj
 0003:00002458       $SG17906                   0000000180034458     c2_continental_test.obj
 0003:00002460       $SG17907                   0000000180034460     c2_continental_test.obj
 0003:00002468       $SG17908                   0000000180034468     c2_continental_test.obj
 0003:000024a0       $SG17909                   00000001800344a0     c2_continental_test.obj
 0003:000024a8       $SG17910                   00000001800344a8     c2_continental_test.obj
 0003:000024b0       $SG17911                   00000001800344b0     c2_continental_test.obj
 0003:000024c8       $SG17912                   00000001800344c8     c2_continental_test.obj
 0003:000024d8       $SG17913                   00000001800344d8     c2_continental_test.obj
 0003:000024e8       $SG17915                   00000001800344e8     c2_continental_test.obj
 0003:000024f8       $SG17916                   00000001800344f8     c2_continental_test.obj
 0003:00002508       $SG17918                   0000000180034508     c2_continental_test.obj
 0003:00002518       $SG17922                   0000000180034518     c2_continental_test.obj
 0003:00002524       $SG17933                   0000000180034524     c2_continental_test.obj
 0003:00002530       $SG17917                   0000000180034530     c2_continental_test.obj
 0003:00002578       $SG17919                   0000000180034578     c2_continental_test.obj
 0003:00002588       $SG17920                   0000000180034588     c2_continental_test.obj
 0003:00002598       $SG17921                   0000000180034598     c2_continental_test.obj
 0003:000025a8       $SG17923                   00000001800345a8     c2_continental_test.obj
 0003:000025b8       $SG17924                   00000001800345b8     c2_continental_test.obj
 0003:000025c8       $SG17925                   00000001800345c8     c2_continental_test.obj
 0003:000025d8       $SG17930                   00000001800345d8     c2_continental_test.obj
 0003:000025e0       $SG17931                   00000001800345e0     c2_continental_test.obj
 0003:000025e8       $SG17932                   00000001800345e8     c2_continental_test.obj
 0003:00002620       $SG17934                   0000000180034620     c2_continental_test.obj
 0003:00002628       $SG17935                   0000000180034628     c2_continental_test.obj
 0003:00002630       $SG17936                   0000000180034630     c2_continental_test.obj
 0003:00002640       $SG17937                   0000000180034640     c2_continental_test.obj
 0003:00002650       $SG17939                   0000000180034650     c2_continental_test.obj
 0003:00002660       $SG17940                   0000000180034660     c2_continental_test.obj
 0003:00002670       $SG17941                   0000000180034670     c2_continental_test.obj
 0003:000026a8       $SG17942                   00000001800346a8     c2_continental_test.obj
 0003:000026b8       $SG17943                   00000001800346b8     c2_continental_test.obj
 0003:000026c8       $SG17944                   00000001800346c8     c2_continental_test.obj
 0003:000026d8       $SG17945                   00000001800346d8     c2_continental_test.obj
 0003:000026e8       $SG17946                   00000001800346e8     c2_continental_test.obj
 0003:000026f8       $SG17947                   00000001800346f8     c2_continental_test.obj
 0003:00002708       $SG17948                   0000000180034708     c2_continental_test.obj
 0003:00002718       $SG17949                   0000000180034718     c2_continental_test.obj
 0003:00002728       $SG17954                   0000000180034728     c2_continental_test.obj
 0003:00002730       $SG17955                   0000000180034730     c2_continental_test.obj
 0003:00002738       $SG17956                   0000000180034738     c2_continental_test.obj
 0003:00002770       $SG17957                   0000000180034770     c2_continental_test.obj
 0003:00002778       $SG17958                   0000000180034778     c2_continental_test.obj
 0003:00002780       $SG17959                   0000000180034780     c2_continental_test.obj
 0003:00002798       $SG17960                   0000000180034798     c2_continental_test.obj
 0003:000027a8       $SG17961                   00000001800347a8     c2_continental_test.obj
 0003:000027b8       $SG17963                   00000001800347b8     c2_continental_test.obj
 0003:000027c8       $SG17964                   00000001800347c8     c2_continental_test.obj
 0003:000027d8       $SG17965                   00000001800347d8     c2_continental_test.obj
 0003:00002818       $SG17966                   0000000180034818     c2_continental_test.obj
 0003:00002828       $SG17967                   0000000180034828     c2_continental_test.obj
 0003:00002838       $SG17968                   0000000180034838     c2_continental_test.obj
 0003:00002848       $SG17969                   0000000180034848     c2_continental_test.obj
 0003:00002858       $SG17970                   0000000180034858     c2_continental_test.obj
 0003:00002868       $SG17971                   0000000180034868     c2_continental_test.obj
 0003:00002878       $SG17972                   0000000180034878     c2_continental_test.obj
 0003:00002888       $SG17973                   0000000180034888     c2_continental_test.obj
 0003:00002894       $SG16957                   0000000180034894     c2_continental_test.obj
 0003:0000289c       $SG16969                   000000018003489c     c2_continental_test.obj
 0003:000028a4       $SG17009                   00000001800348a4     c2_continental_test.obj
 0003:000028ac       $SG17011                   00000001800348ac     c2_continental_test.obj
 0003:000028b4       $SG17027                   00000001800348b4     c2_continental_test.obj
 0003:000028bc       $SG17029                   00000001800348bc     c2_continental_test.obj
 0003:000028c4       $SG17049                   00000001800348c4     c2_continental_test.obj
 0003:000028cc       $SG17051                   00000001800348cc     c2_continental_test.obj
 0003:000028d4       $SG17060                   00000001800348d4     c2_continental_test.obj
 0003:000028e0       $SG18092                   00000001800348e0     c2_continental_test.obj
 0003:000028f0       $SG18093                   00000001800348f0     c2_continental_test.obj
 0003:00002900       $SG18096                   0000000180034900     c2_continental_test.obj
 0003:00002910       $SG18097                   0000000180034910     c2_continental_test.obj
 0003:00002920       $SG18098                   0000000180034920     c2_continental_test.obj
 0003:00002928       $SG18099                   0000000180034928     c2_continental_test.obj
 0003:00002930       $SG17079                   0000000180034930     c2_continental_test.obj
 0003:00002938       $SG18104                   0000000180034938     c2_continental_test.obj
 0003:00002950       $SG18105                   0000000180034950     c2_continental_test.obj
 0003:0000295c       $SG17081                   000000018003495c     c2_continental_test.obj
 0003:00002964       $SG18107                   0000000180034964     c2_continental_test.obj
 0003:0000296c       $SG18108                   000000018003496c     c2_continental_test.obj
 0003:00002974       $SG18109                   0000000180034974     c2_continental_test.obj
 0003:0000297c       $SG18110                   000000018003497c     c2_continental_test.obj
 0003:00002988       $SG18111                   0000000180034988     c2_continental_test.obj
 0003:00002998       $SG18112                   0000000180034998     c2_continental_test.obj
 0003:000029a4       $SG17090                   00000001800349a4     c2_continental_test.obj
 0003:000029ac       $SG18118                   00000001800349ac     c2_continental_test.obj
 0003:000029b4       $SG18120                   00000001800349b4     c2_continental_test.obj
 0003:000029bc       $SG18121                   00000001800349bc     c2_continental_test.obj
 0003:000029c4       $SG18122                   00000001800349c4     c2_continental_test.obj
 0003:000029cc       $SG18123                   00000001800349cc     c2_continental_test.obj
 0003:000029d4       $SG17100                   00000001800349d4     c2_continental_test.obj
 0003:000029dc       $SG18125                   00000001800349dc     c2_continental_test.obj
 0003:000029e4       $SG18126                   00000001800349e4     c2_continental_test.obj
 0003:000029ec       $SG18127                   00000001800349ec     c2_continental_test.obj
 0003:000029f8       $SG18128                   00000001800349f8     c2_continental_test.obj
 0003:00002a04       $SG18133                   0000000180034a04     c2_continental_test.obj
 0003:00002a0c       $SG17110                   0000000180034a0c     c2_continental_test.obj
 0003:00002a14       $SG18135                   0000000180034a14     c2_continental_test.obj
 0003:00002a1c       $SG18136                   0000000180034a1c     c2_continental_test.obj
 0003:00002a24       $SG18137                   0000000180034a24     c2_continental_test.obj
 0003:00002a2c       $SG18138                   0000000180034a2c     c2_continental_test.obj
 0003:00002a34       $SG18140                   0000000180034a34     c2_continental_test.obj
 0003:00002a3c       $SG18141                   0000000180034a3c     c2_continental_test.obj
 0003:00002a44       $SG18142                   0000000180034a44     c2_continental_test.obj
 0003:00002a50       $SG18143                   0000000180034a50     c2_continental_test.obj
 0003:00002a5c       $SG18148                   0000000180034a5c     c2_continental_test.obj
 0003:00002a64       $SG18150                   0000000180034a64     c2_continental_test.obj
 0003:00002a6c       $SG17126                   0000000180034a6c     c2_continental_test.obj
 0003:00002a74       $SG18151                   0000000180034a74     c2_continental_test.obj
 0003:00002a7c       $SG18152                   0000000180034a7c     c2_continental_test.obj
 0003:00002a84       $SG17128                   0000000180034a84     c2_continental_test.obj
 0003:00002a8c       $SG18153                   0000000180034a8c     c2_continental_test.obj
 0003:00002a94       $SG18155                   0000000180034a94     c2_continental_test.obj
 0003:00002a9c       $SG18156                   0000000180034a9c     c2_continental_test.obj
 0003:00002aa4       $SG18157                   0000000180034aa4     c2_continental_test.obj
 0003:00002ab0       $SG18158                   0000000180034ab0     c2_continental_test.obj
 0003:00002abc       $SG18159                   0000000180034abc     c2_continental_test.obj
 0003:00002ac8       $SG18160                   0000000180034ac8     c2_continental_test.obj
 0003:00002ad4       $SG18162                   0000000180034ad4     c2_continental_test.obj
 0003:00002adc       $SG18163                   0000000180034adc     c2_continental_test.obj
 0003:00002ae4       $SG18164                   0000000180034ae4     c2_continental_test.obj
 0003:00002aec       $SG18165                   0000000180034aec     c2_continental_test.obj
 0003:00002af8       $SG18166                   0000000180034af8     c2_continental_test.obj
 0003:00002b08       $SG18167                   0000000180034b08     c2_continental_test.obj
 0003:00002b14       $SG17146                   0000000180034b14     c2_continental_test.obj
 0003:00002b1c       $SG17148                   0000000180034b1c     c2_continental_test.obj
 0003:00002b24       $SG18173                   0000000180034b24     c2_continental_test.obj
 0003:00002b2c       $SG18175                   0000000180034b2c     c2_continental_test.obj
 0003:00002b34       $SG18176                   0000000180034b34     c2_continental_test.obj
 0003:00002b3c       $SG18177                   0000000180034b3c     c2_continental_test.obj
 0003:00002b44       $SG18178                   0000000180034b44     c2_continental_test.obj
 0003:00002b4c       $SG18180                   0000000180034b4c     c2_continental_test.obj
 0003:00002b54       $SG18181                   0000000180034b54     c2_continental_test.obj
 0003:00002b5c       $SG17157                   0000000180034b5c     c2_continental_test.obj
 0003:00002b64       $SG18182                   0000000180034b64     c2_continental_test.obj
 0003:00002b70       $SG18183                   0000000180034b70     c2_continental_test.obj
 0003:00002b80       $SG18184                   0000000180034b80     c2_continental_test.obj
 0003:00002b88       $SG18185                   0000000180034b88     c2_continental_test.obj
 0003:00002b90       $SG18198                   0000000180034b90     c2_continental_test.obj
 0003:00002ba0       $SG18199                   0000000180034ba0     c2_continental_test.obj
 0003:00002bb0       $SG17175                   0000000180034bb0     c2_continental_test.obj
 0003:00002bb8       $SG18200                   0000000180034bb8     c2_continental_test.obj
 0003:00002bc0       $SG18201                   0000000180034bc0     c2_continental_test.obj
 0003:00002bc8       $SG17177                   0000000180034bc8     c2_continental_test.obj
 0003:00002bd0       $SG18204                   0000000180034bd0     c2_continental_test.obj
 0003:00002c40       $SG18205                   0000000180034c40     c2_continental_test.obj
 0003:00002cb0       $SG17186                   0000000180034cb0     c2_continental_test.obj
 0003:00002cb8       $SG18225                   0000000180034cb8     c2_continental_test.obj
 0003:00002cc0       $SG18226                   0000000180034cc0     c2_continental_test.obj
 0003:00002cc8       $SG17205                   0000000180034cc8     c2_continental_test.obj
 0003:00002cd0       $SG17207                   0000000180034cd0     c2_continental_test.obj
 0003:00002cd8       $SG18234                   0000000180034cd8     c2_continental_test.obj
 0003:00002ce8       ?condStart@?7??chart_debug_initialization@@9@9 0000000180034ce8     c2_continental_test.obj
 0003:00002cf0       ?condEnd@?7??chart_debug_initialization@@9@9 0000000180034cf0     c2_continental_test.obj
 0003:00002cf8       ?pfixExpr@?7??chart_debug_initialization@@9@9 0000000180034cf8     c2_continental_test.obj
 0003:00002d04       $SG17216                   0000000180034d04     c2_continental_test.obj
 0003:00002d0c       $SG17235                   0000000180034d0c     c2_continental_test.obj
 0003:00002d14       $SG17237                   0000000180034d14     c2_continental_test.obj
 0003:00002d1c       $SG17246                   0000000180034d1c     c2_continental_test.obj
 0003:00002d28       $SG18276                   0000000180034d28     c2_continental_test.obj
 0003:00002d40       $SG17256                   0000000180034d40     c2_continental_test.obj
 0003:00002d48       $SG18311                   0000000180034d48     c2_continental_test.obj
 0003:00002d60       $SG18315                   0000000180034d60     c2_continental_test.obj
 0003:00002d70       $SG18319                   0000000180034d70     c2_continental_test.obj
 0003:00002db8       $SG18334                   0000000180034db8     c2_continental_test.obj
 0003:00002dd0       $SG18336                   0000000180034dd0     c2_continental_test.obj
 0003:00002de0       $SG18340                   0000000180034de0     c2_continental_test.obj
 0003:00002e24       $SG18405                   0000000180034e24     c2_continental_test.obj
 0003:00002e30       $SG18412                   0000000180034e30     c2_continental_test.obj
 0003:00002e60       $SG17418                   0000000180034e60     c3_continental_test.obj
 0003:00002e64       $SG17479                   0000000180034e64     c3_continental_test.obj
 0003:00002e68       $SG17504                   0000000180034e68     c3_continental_test.obj
 0003:00002e6c       $SG17563                   0000000180034e6c     c3_continental_test.obj
 0003:00002e70       $SG17547                   0000000180034e70     c3_continental_test.obj
 0003:00002e80       $SG17635                   0000000180034e80     c3_continental_test.obj
 0003:00002e8c       $SG17637                   0000000180034e8c     c3_continental_test.obj
 0003:00002e94       $SG16645                   0000000180034e94     c3_continental_test.obj
 0003:00002e98       $SG17636                   0000000180034e98     c3_continental_test.obj
 0003:00002ea4       $SG17638                   0000000180034ea4     c3_continental_test.obj
 0003:00002eac       $SG16886                   0000000180034eac     c3_continental_test.obj
 0003:00002eb0       $SG17639                   0000000180034eb0     c3_continental_test.obj
 0003:00002ebc       $SG16891                   0000000180034ebc     c3_continental_test.obj
 0003:00002ec0       $SG17640                   0000000180034ec0     c3_continental_test.obj
 0003:00002ecc       $SG16896                   0000000180034ecc     c3_continental_test.obj
 0003:00002ed0       $SG17641                   0000000180034ed0     c3_continental_test.obj
 0003:00002ed8       $SG17642                   0000000180034ed8     c3_continental_test.obj
 0003:00002ee0       $SG17643                   0000000180034ee0     c3_continental_test.obj
 0003:00002ee8       $SG17644                   0000000180034ee8     c3_continental_test.obj
 0003:00002ef0       $SG17647                   0000000180034ef0     c3_continental_test.obj
 0003:00002f08       $SG17648                   0000000180034f08     c3_continental_test.obj
 0003:00002f14       $SG17650                   0000000180034f14     c3_continental_test.obj
 0003:00002f1c       $SG17651                   0000000180034f1c     c3_continental_test.obj
 0003:00002f24       $SG17652                   0000000180034f24     c3_continental_test.obj
 0003:00002f2c       $SG17653                   0000000180034f2c     c3_continental_test.obj
 0003:00002f34       $SG17665                   0000000180034f34     c3_continental_test.obj
 0003:00002f3c       $SG16647                   0000000180034f3c     c3_continental_test.obj
 0003:00002f44       $SG16898                   0000000180034f44     c3_continental_test.obj
 0003:00002f48       $SG17654                   0000000180034f48     c3_continental_test.obj
 0003:00002f54       $SG17030                   0000000180034f54     c3_continental_test.obj
 0003:00002f58       $SG17655                   0000000180034f58     c3_continental_test.obj
 0003:00002f64       $SG17661                   0000000180034f64     c3_continental_test.obj
 0003:00002f6c       $SG17663                   0000000180034f6c     c3_continental_test.obj
 0003:00002f74       $SG17664                   0000000180034f74     c3_continental_test.obj
 0003:00002f80       c3_debug_family_names      0000000180034f80     c3_continental_test.obj
 0003:00002fd8       $SG17666                   0000000180034fd8     c3_continental_test.obj
 0003:00002fe0       $SG16642                   0000000180034fe0     c3_continental_test.obj
 0003:00002ff0       $SG16643                   0000000180034ff0     c3_continental_test.obj
 0003:00002ff8       $SG17668                   0000000180034ff8     c3_continental_test.obj
 0003:00003000       $SG16644                   0000000180035000     c3_continental_test.obj
 0003:00003014       $SG17669                   0000000180035014     c3_continental_test.obj
 0003:0000301c       $SG17670                   000000018003501c     c3_continental_test.obj
 0003:00003024       $SG16646                   0000000180035024     c3_continental_test.obj
 0003:0000302c       $SG17672                   000000018003502c     c3_continental_test.obj
 0003:00003034       $SG17049                   0000000180035034     c3_continental_test.obj
 0003:00003038       $SG17671                   0000000180035038     c3_continental_test.obj
 0003:00003044       $SG17066                   0000000180035044     c3_continental_test.obj
 0003:00003048       $SG16648                   0000000180035048     c3_continental_test.obj
 0003:00003050       $SG17673                   0000000180035050     c3_continental_test.obj
 0003:0000305c       $SG16649                   000000018003505c     c3_continental_test.obj
 0003:00003064       $SG16650                   0000000180035064     c3_continental_test.obj
 0003:0000306c       $SG17675                   000000018003506c     c3_continental_test.obj
 0003:00003074       $SG16651                   0000000180035074     c3_continental_test.obj
 0003:0000307c       $SG17676                   000000018003507c     c3_continental_test.obj
 0003:00003084       $SG17690                   0000000180035084     c3_continental_test.obj
 0003:0000308c       $SG17728                   000000018003508c     c3_continental_test.obj
 0003:00003094       $SG17087                   0000000180035094     c3_continental_test.obj
 0003:00003098       $SG16652                   0000000180035098     c3_continental_test.obj
 0003:000030a0       $SG17677                   00000001800350a0     c3_continental_test.obj
 0003:000030a8       $SG17678                   00000001800350a8     c3_continental_test.obj
 0003:000030b0       $SG17679                   00000001800350b0     c3_continental_test.obj
 0003:000030bc       $SG17106                   00000001800350bc     c3_continental_test.obj
 0003:000030c0       $SG17680                   00000001800350c0     c3_continental_test.obj
 0003:000030cc       $SG17686                   00000001800350cc     c3_continental_test.obj
 0003:000030d4       $SG17688                   00000001800350d4     c3_continental_test.obj
 0003:000030dc       $SG17689                   00000001800350dc     c3_continental_test.obj
 0003:000030e4       $SG17691                   00000001800350e4     c3_continental_test.obj
 0003:000030ec       $SG17693                   00000001800350ec     c3_continental_test.obj
 0003:000030f4       $SG17694                   00000001800350f4     c3_continental_test.obj
 0003:000030fc       $SG17695                   00000001800350fc     c3_continental_test.obj
 0003:00003104       $SG17705                   0000000180035104     c3_continental_test.obj
 0003:0000310c       $SG17108                   000000018003510c     c3_continental_test.obj
 0003:00003110       $SG17696                   0000000180035110     c3_continental_test.obj
 0003:0000311c       $SG17701                   000000018003511c     c3_continental_test.obj
 0003:00003124       $SG17703                   0000000180035124     c3_continental_test.obj
 0003:0000312c       $SG17704                   000000018003512c     c3_continental_test.obj
 0003:00003134       $SG17706                   0000000180035134     c3_continental_test.obj
 0003:0000313c       $SG17708                   000000018003513c     c3_continental_test.obj
 0003:00003144       $SG17709                   0000000180035144     c3_continental_test.obj
 0003:0000314c       $SG17710                   000000018003514c     c3_continental_test.obj
 0003:00003154       $SG17720                   0000000180035154     c3_continental_test.obj
 0003:0000315c       $SG17117                   000000018003515c     c3_continental_test.obj
 0003:00003160       $SG17711                   0000000180035160     c3_continental_test.obj
 0003:0000316c       $SG17716                   000000018003516c     c3_continental_test.obj
 0003:00003174       $SG17718                   0000000180035174     c3_continental_test.obj
 0003:0000317c       $SG17719                   000000018003517c     c3_continental_test.obj
 0003:00003184       $SG17721                   0000000180035184     c3_continental_test.obj
 0003:0000318c       $SG17723                   000000018003518c     c3_continental_test.obj
 0003:00003194       $SG17724                   0000000180035194     c3_continental_test.obj
 0003:0000319c       $SG17725                   000000018003519c     c3_continental_test.obj
 0003:000031a4       $SG17768                   00000001800351a4     c3_continental_test.obj
 0003:000031ac       $SG17126                   00000001800351ac     c3_continental_test.obj
 0003:000031b0       $SG17726                   00000001800351b0     c3_continental_test.obj
 0003:000031bc       $SG17137                   00000001800351bc     c3_continental_test.obj
 0003:000031c0       $SG17727                   00000001800351c0     c3_continental_test.obj
 0003:000031c8       $SG17741                   00000001800351c8     c3_continental_test.obj
 0003:000031d8       $SG17742                   00000001800351d8     c3_continental_test.obj
 0003:000031e8       $SG17743                   00000001800351e8     c3_continental_test.obj
 0003:000031f0       $SG17744                   00000001800351f0     c3_continental_test.obj
 0003:000031f8       $SG17769                   00000001800351f8     c3_continental_test.obj
 0003:00003200       $SG17747                   0000000180035200     c3_continental_test.obj
 0003:000032a0       $SG17748                   00000001800352a0     c3_continental_test.obj
 0003:0000333c       $SG17770                   000000018003533c     c3_continental_test.obj
 0003:00003344       $SG17153                   0000000180035344     c3_continental_test.obj
 0003:00003348       $SG17771                   0000000180035348     c3_continental_test.obj
 0003:00003350       $SG17777                   0000000180035350     c3_continental_test.obj
 0003:00003360       ?caseStart@?7??chart_debug_initialization@@9@9 0000000180035360     c3_continental_test.obj
 0003:00003370       ?caseExprEnd@?7??chart_debug_initialization@@9@9 0000000180035370     c3_continental_test.obj
 0003:00003380       $SG17815                   0000000180035380     c3_continental_test.obj
 0003:00003398       $SG17850                   0000000180035398     c3_continental_test.obj
 0003:000033b0       $SG17854                   00000001800353b0     c3_continental_test.obj
 0003:000033c0       $SG17858                   00000001800353c0     c3_continental_test.obj
 0003:00003404       $SG17155                   0000000180035404     c3_continental_test.obj
 0003:00003408       $SG17873                   0000000180035408     c3_continental_test.obj
 0003:00003420       $SG17875                   0000000180035420     c3_continental_test.obj
 0003:00003430       $SG17879                   0000000180035430     c3_continental_test.obj
 0003:00003474       $SG16917                   0000000180035474     c3_continental_test.obj
 0003:0000347c       $SG17944                   000000018003547c     c3_continental_test.obj
 0003:00003484       $SG16921                   0000000180035484     c3_continental_test.obj
 0003:0000348c       $SG17164                   000000018003548c     c3_continental_test.obj
 0003:00003490       $SG16925                   0000000180035490     c3_continental_test.obj
 0003:00003498       $SG17951                   0000000180035498     c3_continental_test.obj
 0003:000034bc       $SG17175                   00000001800354bc     c3_continental_test.obj
 0003:000034c0       $SG16929                   00000001800354c0     c3_continental_test.obj
 0003:000034e0       $SG17972                   00000001800354e0     c3_continental_test.obj
 0003:000034f0       $SG17973                   00000001800354f0     c3_continental_test.obj
 0003:00003504       $SG17191                   0000000180035504     c3_continental_test.obj
 0003:00003508       ?c3_dv3@?1??sf_gateway_c3_continental_test@@9@9 0000000180035508     c3_continental_test.obj
 0003:00003528       $SG17987                   0000000180035528     c3_continental_test.obj
 0003:00003558       $SG17031                   0000000180035558     c3_continental_test.obj
 0003:00003560       $SG18012                   0000000180035560     c3_continental_test.obj
 0003:000035c8       $SG17032                   00000001800355c8     c3_continental_test.obj
 0003:000035d0       $SG17033                   00000001800355d0     c3_continental_test.obj
 0003:000035e0       $SG17050                   00000001800355e0     c3_continental_test.obj
 0003:000035e8       $SG17051                   00000001800355e8     c3_continental_test.obj
 0003:000035f0       $SG17052                   00000001800355f0     c3_continental_test.obj
 0003:00003600       $SG17067                   0000000180035600     c3_continental_test.obj
 0003:00003614       $SG17193                   0000000180035614     c3_continental_test.obj
 0003:00003618       $SG17088                   0000000180035618     c3_continental_test.obj
 0003:0000362c       $SG17202                   000000018003562c     c3_continental_test.obj
 0003:00003630       $SG17089                   0000000180035630     c3_continental_test.obj
 0003:00003648       $SG17107                   0000000180035648     c3_continental_test.obj
 0003:00003650       $SG17109                   0000000180035650     c3_continental_test.obj
 0003:00003658       $SG17118                   0000000180035658     c3_continental_test.obj
 0003:00003660       $SG17127                   0000000180035660     c3_continental_test.obj
 0003:00003668       $SG17138                   0000000180035668     c3_continental_test.obj
 0003:00003670       $SG17154                   0000000180035670     c3_continental_test.obj
 0003:00003678       $SG17156                   0000000180035678     c3_continental_test.obj
 0003:00003680       $SG17165                   0000000180035680     c3_continental_test.obj
 0003:00003688       $SG17176                   0000000180035688     c3_continental_test.obj
 0003:00003690       $SG17192                   0000000180035690     c3_continental_test.obj
 0003:00003698       $SG17194                   0000000180035698     c3_continental_test.obj
 0003:000036a0       $SG17203                   00000001800356a0     c3_continental_test.obj
 0003:000036a8       $SG17220                   00000001800356a8     c3_continental_test.obj
 0003:000036ac       $SG17221                   00000001800356ac     c3_continental_test.obj
 0003:000036b4       $SG17222                   00000001800356b4     c3_continental_test.obj
 0003:000036b8       $SG17223                   00000001800356b8     c3_continental_test.obj
 0003:000036c0       $SG17231                   00000001800356c0     c3_continental_test.obj
 0003:000036c4       $SG17232                   00000001800356c4     c3_continental_test.obj
 0003:000036cc       $SG17240                   00000001800356cc     c3_continental_test.obj
 0003:000036d0       $SG17241                   00000001800356d0     c3_continental_test.obj
 0003:000036d8       $SG17303                   00000001800356d8     c3_continental_test.obj
 0003:000036dc       $SG17366                   00000001800356dc     c3_continental_test.obj
 0003:000036e0       $SG17408                   00000001800356e0     c4_continental_test.obj
 0003:000036f8       $SG17409                   00000001800356f8     c4_continental_test.obj
 0003:00003708       $SG17410                   0000000180035708     c4_continental_test.obj
 0003:00003718       $SG17411                   0000000180035718     c4_continental_test.obj
 0003:00003720       $SG17412                   0000000180035720     c4_continental_test.obj
 0003:0000372c       $SG17423                   000000018003572c     c4_continental_test.obj
 0003:00003730       $SG17413                   0000000180035730     c4_continental_test.obj
 0003:00003740       $SG17414                   0000000180035740     c4_continental_test.obj
 0003:00003784       $SG17424                   0000000180035784     c4_continental_test.obj
 0003:00003788       $SG17415                   0000000180035788     c4_continental_test.obj
 0003:00003794       $SG17425                   0000000180035794     c4_continental_test.obj
 0003:00003798       $SG17416                   0000000180035798     c4_continental_test.obj
 0003:000037a4       $SG17426                   00000001800357a4     c4_continental_test.obj
 0003:000037a8       $SG17417                   00000001800357a8     c4_continental_test.obj
 0003:000037b4       $SG17432                   00000001800357b4     c4_continental_test.obj
 0003:000037b8       $SG17418                   00000001800357b8     c4_continental_test.obj
 0003:000037c4       $SG17447                   00000001800357c4     c4_continental_test.obj
 0003:000037c8       $SG17419                   00000001800357c8     c4_continental_test.obj
 0003:000037d4       $SG18472                   00000001800357d4     c4_continental_test.obj
 0003:000037d8       $SG17420                   00000001800357d8     c4_continental_test.obj
 0003:000037e4       $SG17448                   00000001800357e4     c4_continental_test.obj
 0003:000037e8       $SG17421                   00000001800357e8     c4_continental_test.obj
 0003:000037f4       $SG17449                   00000001800357f4     c4_continental_test.obj
 0003:000037f8       $SG17422                   00000001800357f8     c4_continental_test.obj
 0003:00003804       $SG17450                   0000000180035804     c4_continental_test.obj
 0003:00003808       $SG17427                   0000000180035808     c4_continental_test.obj
 0003:00003810       $SG17428                   0000000180035810     c4_continental_test.obj
 0003:00003818       $SG17430                   0000000180035818     c4_continental_test.obj
 0003:00003820       $SG17429                   0000000180035820     c4_continental_test.obj
 0003:0000386c       $SG17431                   000000018003586c     c4_continental_test.obj
 0003:00003874       $SG17435                   0000000180035874     c4_continental_test.obj
 0003:0000387c       $SG17471                   000000018003587c     c4_continental_test.obj
 0003:00003880       $SG17433                   0000000180035880     c4_continental_test.obj
 0003:00003890       $SG17434                   0000000180035890     c4_continental_test.obj
 0003:000038a0       $SG17436                   00000001800358a0     c4_continental_test.obj
 0003:000038ac       $SG17459                   00000001800358ac     c4_continental_test.obj
 0003:000038b4       $SG17472                   00000001800358b4     c4_continental_test.obj
 0003:000038b8       $SG17437                   00000001800358b8     c4_continental_test.obj
 0003:000038c4       $SG17473                   00000001800358c4     c4_continental_test.obj
 0003:000038c8       $SG17438                   00000001800358c8     c4_continental_test.obj
 0003:00003900       $SG17439                   0000000180035900     c4_continental_test.obj
 0003:0000390c       $SG17474                   000000018003590c     c4_continental_test.obj
 0003:00003910       $SG17440                   0000000180035910     c4_continental_test.obj
 0003:0000391c       $SG17495                   000000018003591c     c4_continental_test.obj
 0003:00003920       $SG17441                   0000000180035920     c4_continental_test.obj
 0003:0000392c       $SG17496                   000000018003592c     c4_continental_test.obj
 0003:00003930       $SG17442                   0000000180035930     c4_continental_test.obj
 0003:0000393c       $SG17497                   000000018003593c     c4_continental_test.obj
 0003:00003940       $SG17443                   0000000180035940     c4_continental_test.obj
 0003:0000394c       $SG17498                   000000018003594c     c4_continental_test.obj
 0003:00003950       $SG17444                   0000000180035950     c4_continental_test.obj
 0003:0000395c       $SG17519                   000000018003595c     c4_continental_test.obj
 0003:00003960       $SG17445                   0000000180035960     c4_continental_test.obj
 0003:0000396c       $SG17520                   000000018003596c     c4_continental_test.obj
 0003:00003970       $SG17446                   0000000180035970     c4_continental_test.obj
 0003:0000397c       $SG17521                   000000018003597c     c4_continental_test.obj
 0003:00003980       $SG17451                   0000000180035980     c4_continental_test.obj
 0003:00003988       $SG17452                   0000000180035988     c4_continental_test.obj
 0003:00003990       $SG17453                   0000000180035990     c4_continental_test.obj
 0003:000039c8       $SG17454                   00000001800359c8     c4_continental_test.obj
 0003:000039d0       $SG17455                   00000001800359d0     c4_continental_test.obj
 0003:000039d8       $SG17456                   00000001800359d8     c4_continental_test.obj
 0003:000039f8       $SG17457                   00000001800359f8     c4_continental_test.obj
 0003:00003a08       $SG17458                   0000000180035a08     c4_continental_test.obj
 0003:00003a18       $SG17460                   0000000180035a18     c4_continental_test.obj
 0003:00003a24       $SG17483                   0000000180035a24     c4_continental_test.obj
 0003:00003a2c       $SG17522                   0000000180035a2c     c4_continental_test.obj
 0003:00003a30       $SG17461                   0000000180035a30     c4_continental_test.obj
 0003:00003a40       $SG17462                   0000000180035a40     c4_continental_test.obj
 0003:00003a94       $SG17504                   0000000180035a94     c4_continental_test.obj
 0003:00003a9c       $SG17507                   0000000180035a9c     c4_continental_test.obj
 0003:00003aa4       $SG17543                   0000000180035aa4     c4_continental_test.obj
 0003:00003aa8       $SG17463                   0000000180035aa8     c4_continental_test.obj
 0003:00003ab4       $SG17544                   0000000180035ab4     c4_continental_test.obj
 0003:00003ab8       $SG17464                   0000000180035ab8     c4_continental_test.obj
 0003:00003ac4       $SG17545                   0000000180035ac4     c4_continental_test.obj
 0003:00003ac8       $SG17465                   0000000180035ac8     c4_continental_test.obj
 0003:00003ad4       $SG17546                   0000000180035ad4     c4_continental_test.obj
 0003:00003ad8       $SG17466                   0000000180035ad8     c4_continental_test.obj
 0003:00003ae4       $SG17567                   0000000180035ae4     c4_continental_test.obj
 0003:00003ae8       $SG17467                   0000000180035ae8     c4_continental_test.obj
 0003:00003af4       $SG17568                   0000000180035af4     c4_continental_test.obj
 0003:00003af8       $SG17468                   0000000180035af8     c4_continental_test.obj
 0003:00003b04       $SG17569                   0000000180035b04     c4_continental_test.obj
 0003:00003b08       $SG17469                   0000000180035b08     c4_continental_test.obj
 0003:00003b14       $SG17570                   0000000180035b14     c4_continental_test.obj
 0003:00003b18       $SG17470                   0000000180035b18     c4_continental_test.obj
 0003:00003b24       $SG17591                   0000000180035b24     c4_continental_test.obj
 0003:00003b28       $SG17475                   0000000180035b28     c4_continental_test.obj
 0003:00003b30       $SG17476                   0000000180035b30     c4_continental_test.obj
 0003:00003b38       $SG17477                   0000000180035b38     c4_continental_test.obj
 0003:00003b70       $SG17478                   0000000180035b70     c4_continental_test.obj
 0003:00003b78       $SG17479                   0000000180035b78     c4_continental_test.obj
 0003:00003b80       $SG17480                   0000000180035b80     c4_continental_test.obj
 0003:00003b90       $SG17481                   0000000180035b90     c4_continental_test.obj
 0003:00003ba0       $SG17482                   0000000180035ba0     c4_continental_test.obj
 0003:00003bb0       $SG17484                   0000000180035bb0     c4_continental_test.obj
 0003:00003bbc       $SG17531                   0000000180035bbc     c4_continental_test.obj
 0003:00003bc4       $SG17592                   0000000180035bc4     c4_continental_test.obj
 0003:00003bc8       $SG17485                   0000000180035bc8     c4_continental_test.obj
 0003:00003bd8       $SG17487                   0000000180035bd8     c4_continental_test.obj
 0003:00003be8       $SG17491                   0000000180035be8     c4_continental_test.obj
 0003:00003bf4       $SG17502                   0000000180035bf4     c4_continental_test.obj
 0003:00003c00       $SG17486                   0000000180035c00     c4_continental_test.obj
 0003:00003c44       $SG17555                   0000000180035c44     c4_continental_test.obj
 0003:00003c4c       $SG17593                   0000000180035c4c     c4_continental_test.obj
 0003:00003c50       $SG17488                   0000000180035c50     c4_continental_test.obj
 0003:00003c5c       $SG17594                   0000000180035c5c     c4_continental_test.obj
 0003:00003c60       $SG17489                   0000000180035c60     c4_continental_test.obj
 0003:00003c6c       $SG17615                   0000000180035c6c     c4_continental_test.obj
 0003:00003c70       $SG17490                   0000000180035c70     c4_continental_test.obj
 0003:00003c7c       $SG17616                   0000000180035c7c     c4_continental_test.obj
 0003:00003c80       $SG17492                   0000000180035c80     c4_continental_test.obj
 0003:00003c8c       $SG17617                   0000000180035c8c     c4_continental_test.obj
 0003:00003c90       $SG17493                   0000000180035c90     c4_continental_test.obj
 0003:00003c9c       $SG17618                   0000000180035c9c     c4_continental_test.obj
 0003:00003ca0       $SG17494                   0000000180035ca0     c4_continental_test.obj
 0003:00003cac       $SG17639                   0000000180035cac     c4_continental_test.obj
 0003:00003cb0       $SG17499                   0000000180035cb0     c4_continental_test.obj
 0003:00003cb8       $SG17500                   0000000180035cb8     c4_continental_test.obj
 0003:00003cc0       $SG17501                   0000000180035cc0     c4_continental_test.obj
 0003:00003d0c       $SG17503                   0000000180035d0c     c4_continental_test.obj
 0003:00003d14       $SG17640                   0000000180035d14     c4_continental_test.obj
 0003:00003d18       $SG17505                   0000000180035d18     c4_continental_test.obj
 0003:00003d28       $SG17506                   0000000180035d28     c4_continental_test.obj
 0003:00003d38       $SG17508                   0000000180035d38     c4_continental_test.obj
 0003:00003d44       $SG17641                   0000000180035d44     c4_continental_test.obj
 0003:00003d48       $SG17509                   0000000180035d48     c4_continental_test.obj
 0003:00003d54       $SG17642                   0000000180035d54     c4_continental_test.obj
 0003:00003d58       $SG17510                   0000000180035d58     c4_continental_test.obj
 0003:00003d90       $SG17511                   0000000180035d90     c4_continental_test.obj
 0003:00003d9c       $SG17663                   0000000180035d9c     c4_continental_test.obj
 0003:00003da0       $SG17512                   0000000180035da0     c4_continental_test.obj
 0003:00003dac       $SG17664                   0000000180035dac     c4_continental_test.obj
 0003:00003db0       $SG17513                   0000000180035db0     c4_continental_test.obj
 0003:00003dbc       $SG17665                   0000000180035dbc     c4_continental_test.obj
 0003:00003dc0       $SG17514                   0000000180035dc0     c4_continental_test.obj
 0003:00003dcc       $SG17666                   0000000180035dcc     c4_continental_test.obj
 0003:00003dd0       $SG17515                   0000000180035dd0     c4_continental_test.obj
 0003:00003ddc       $SG16642                   0000000180035ddc     c4_continental_test.obj
 0003:00003de0       $SG17516                   0000000180035de0     c4_continental_test.obj
 0003:00003dec       $SG16645                   0000000180035dec     c4_continental_test.obj
 0003:00003df0       $SG17517                   0000000180035df0     c4_continental_test.obj
 0003:00003dfc       $SG16646                   0000000180035dfc     c4_continental_test.obj
 0003:00003e00       $SG17518                   0000000180035e00     c4_continental_test.obj
 0003:00003e0c       $SG17687                   0000000180035e0c     c4_continental_test.obj
 0003:00003e10       $SG17523                   0000000180035e10     c4_continental_test.obj
 0003:00003e18       $SG17524                   0000000180035e18     c4_continental_test.obj
 0003:00003e20       $SG17525                   0000000180035e20     c4_continental_test.obj
 0003:00003e58       $SG17526                   0000000180035e58     c4_continental_test.obj
 0003:00003e60       $SG17527                   0000000180035e60     c4_continental_test.obj
 0003:00003e68       $SG17528                   0000000180035e68     c4_continental_test.obj
 0003:00003e88       $SG17529                   0000000180035e88     c4_continental_test.obj
 0003:00003e98       $SG17530                   0000000180035e98     c4_continental_test.obj
 0003:00003ea8       $SG17532                   0000000180035ea8     c4_continental_test.obj
 0003:00003eb4       $SG17648                   0000000180035eb4     c4_continental_test.obj
 0003:00003ebc       $SG17688                   0000000180035ebc     c4_continental_test.obj
 0003:00003ec0       $SG17533                   0000000180035ec0     c4_continental_test.obj
 0003:00003ed0       $SG17534                   0000000180035ed0     c4_continental_test.obj
 0003:00003f24       $SG16643                   0000000180035f24     c4_continental_test.obj
 0003:00003f2c       $SG17689                   0000000180035f2c     c4_continental_test.obj
 0003:00003f30       $SG17535                   0000000180035f30     c4_continental_test.obj
 0003:00003f3c       $SG17690                   0000000180035f3c     c4_continental_test.obj
 0003:00003f40       $SG17536                   0000000180035f40     c4_continental_test.obj
 0003:00003f4c       $SG17711                   0000000180035f4c     c4_continental_test.obj
 0003:00003f50       $SG17537                   0000000180035f50     c4_continental_test.obj
 0003:00003f5c       $SG17712                   0000000180035f5c     c4_continental_test.obj
 0003:00003f60       $SG17538                   0000000180035f60     c4_continental_test.obj
 0003:00003f6c       $SG17713                   0000000180035f6c     c4_continental_test.obj
 0003:00003f70       $SG17539                   0000000180035f70     c4_continental_test.obj
 0003:00003f7c       $SG17714                   0000000180035f7c     c4_continental_test.obj
 0003:00003f80       $SG17540                   0000000180035f80     c4_continental_test.obj
 0003:00003f8c       $SG17735                   0000000180035f8c     c4_continental_test.obj
 0003:00003f90       $SG17541                   0000000180035f90     c4_continental_test.obj
 0003:00003f9c       $SG17736                   0000000180035f9c     c4_continental_test.obj
 0003:00003fa0       $SG17542                   0000000180035fa0     c4_continental_test.obj
 0003:00003fac       $SG17737                   0000000180035fac     c4_continental_test.obj
 0003:00003fb0       $SG17547                   0000000180035fb0     c4_continental_test.obj
 0003:00003fb8       $SG17548                   0000000180035fb8     c4_continental_test.obj
 0003:00003fc0       $SG17549                   0000000180035fc0     c4_continental_test.obj
 0003:00003ff8       $SG17550                   0000000180035ff8     c4_continental_test.obj
 0003:00004000       $SG17551                   0000000180036000     c4_continental_test.obj
 0003:00004008       $SG17552                   0000000180036008     c4_continental_test.obj
 0003:0000401c       $SG18722                   000000018003601c     c4_continental_test.obj
 0003:00004024       $SG17738                   0000000180036024     c4_continental_test.obj
 0003:00004028       $SG17553                   0000000180036028     c4_continental_test.obj
 0003:00004038       $SG17554                   0000000180036038     c4_continental_test.obj
 0003:00004048       $SG17556                   0000000180036048     c4_continental_test.obj
 0003:00004054       $SG18723                   0000000180036054     c4_continental_test.obj
 0003:0000405c       $SG17759                   000000018003605c     c4_continental_test.obj
 0003:00004060       $SG17557                   0000000180036060     c4_continental_test.obj
 0003:00004070       $SG17558                   0000000180036070     c4_continental_test.obj
 0003:000040b4       $SG17760                   00000001800360b4     c4_continental_test.obj
 0003:000040b8       $SG17559                   00000001800360b8     c4_continental_test.obj
 0003:000040c4       $SG17761                   00000001800360c4     c4_continental_test.obj
 0003:000040c8       $SG17560                   00000001800360c8     c4_continental_test.obj
 0003:000040d4       $SG17762                   00000001800360d4     c4_continental_test.obj
 0003:000040d8       $SG17561                   00000001800360d8     c4_continental_test.obj
 0003:000040e4       $SG17783                   00000001800360e4     c4_continental_test.obj
 0003:000040e8       $SG17562                   00000001800360e8     c4_continental_test.obj
 0003:000040f4       $SG17784                   00000001800360f4     c4_continental_test.obj
 0003:000040f8       $SG17563                   00000001800360f8     c4_continental_test.obj
 0003:00004104       $SG17785                   0000000180036104     c4_continental_test.obj
 0003:00004108       $SG17564                   0000000180036108     c4_continental_test.obj
 0003:00004114       $SG17786                   0000000180036114     c4_continental_test.obj
 0003:00004118       $SG17565                   0000000180036118     c4_continental_test.obj
 0003:00004124       $SG17807                   0000000180036124     c4_continental_test.obj
 0003:00004128       $SG17566                   0000000180036128     c4_continental_test.obj
 0003:00004134       $SG17808                   0000000180036134     c4_continental_test.obj
 0003:00004138       $SG17571                   0000000180036138     c4_continental_test.obj
 0003:00004140       $SG17572                   0000000180036140     c4_continental_test.obj
 0003:00004148       $SG17574                   0000000180036148     c4_continental_test.obj
 0003:00004150       $SG17573                   0000000180036150     c4_continental_test.obj
 0003:0000419c       $SG17575                   000000018003619c     c4_continental_test.obj
 0003:000041a4       $SG17699                   00000001800361a4     c4_continental_test.obj
 0003:000041ac       $SG17809                   00000001800361ac     c4_continental_test.obj
 0003:000041b0       $SG17576                   00000001800361b0     c4_continental_test.obj
 0003:000041d0       $SG17577                   00000001800361d0     c4_continental_test.obj
 0003:000041e0       $SG17578                   00000001800361e0     c4_continental_test.obj
 0003:000041f0       $SG17580                   00000001800361f0     c4_continental_test.obj
 0003:000041fc       $SG18728                   00000001800361fc     c4_continental_test.obj
 0003:00004204       $SG17810                   0000000180036204     c4_continental_test.obj
 0003:00004208       $SG17581                   0000000180036208     c4_continental_test.obj
 0003:00004218       $SG17583                   0000000180036218     c4_continental_test.obj
 0003:00004228       $SG17587                   0000000180036228     c4_continental_test.obj
 0003:00004234       $SG17598                   0000000180036234     c4_continental_test.obj
 0003:00004240       $SG17582                   0000000180036240     c4_continental_test.obj
 0003:00004290       $SG17584                   0000000180036290     c4_continental_test.obj
 0003:0000429c       $SG18838                   000000018003629c     c4_continental_test.obj
 0003:000042a0       $SG17585                   00000001800362a0     c4_continental_test.obj
 0003:000042ac       $SG18840                   00000001800362ac     c4_continental_test.obj
 0003:000042b0       $SG17586                   00000001800362b0     c4_continental_test.obj
 0003:000042bc       $SG17831                   00000001800362bc     c4_continental_test.obj
 0003:000042c0       $SG17588                   00000001800362c0     c4_continental_test.obj
 0003:000042cc       $SG17832                   00000001800362cc     c4_continental_test.obj
 0003:000042d0       $SG17589                   00000001800362d0     c4_continental_test.obj
 0003:000042dc       $SG17833                   00000001800362dc     c4_continental_test.obj
 0003:000042e0       $SG17590                   00000001800362e0     c4_continental_test.obj
 0003:000042ec       $SG17834                   00000001800362ec     c4_continental_test.obj
 0003:000042f0       $SG17595                   00000001800362f0     c4_continental_test.obj
 0003:000042f8       $SG17596                   00000001800362f8     c4_continental_test.obj
 0003:00004300       $SG17597                   0000000180036300     c4_continental_test.obj
 0003:00004360       $SG17599                   0000000180036360     c4_continental_test.obj
 0003:00004368       $SG17600                   0000000180036368     c4_continental_test.obj
 0003:0000437c       $SG18729                   000000018003637c     c4_continental_test.obj
 0003:00004384       $SG17855                   0000000180036384     c4_continental_test.obj
 0003:00004388       $SG17601                   0000000180036388     c4_continental_test.obj
 0003:00004398       $SG17602                   0000000180036398     c4_continental_test.obj
 0003:000043a8       $SG17604                   00000001800363a8     c4_continental_test.obj
 0003:000043b4       $SG18750                   00000001800363b4     c4_continental_test.obj
 0003:000043bc       $SG18772                   00000001800363bc     c4_continental_test.obj
 0003:000043c4       $SG17856                   00000001800363c4     c4_continental_test.obj
 0003:000043c8       $SG17605                   00000001800363c8     c4_continental_test.obj
 0003:000043d8       $SG17607                   00000001800363d8     c4_continental_test.obj
 0003:000043e8       $SG17611                   00000001800363e8     c4_continental_test.obj
 0003:000043f4       $SG17622                   00000001800363f4     c4_continental_test.obj
 0003:00004400       $SG17606                   0000000180036400     c4_continental_test.obj
 0003:00004444       $SG18798                   0000000180036444     c4_continental_test.obj
 0003:0000444c       $SG17857                   000000018003644c     c4_continental_test.obj
 0003:00004450       $SG17608                   0000000180036450     c4_continental_test.obj
 0003:0000445c       $SG17858                   000000018003645c     c4_continental_test.obj
 0003:00004460       $SG17609                   0000000180036460     c4_continental_test.obj
 0003:0000446c       $SG16848                   000000018003646c     c4_continental_test.obj
 0003:00004470       $SG17610                   0000000180036470     c4_continental_test.obj
 0003:0000447c       $SG16850                   000000018003647c     c4_continental_test.obj
 0003:00004480       $SG17612                   0000000180036480     c4_continental_test.obj
 0003:0000448c       $SG17879                   000000018003648c     c4_continental_test.obj
 0003:00004490       $SG17613                   0000000180036490     c4_continental_test.obj
 0003:0000449c       $SG17880                   000000018003649c     c4_continental_test.obj
 0003:000044a0       $SG17614                   00000001800364a0     c4_continental_test.obj
 0003:000044ac       $SG17881                   00000001800364ac     c4_continental_test.obj
 0003:000044b0       $SG17619                   00000001800364b0     c4_continental_test.obj
 0003:000044b8       $SG17620                   00000001800364b8     c4_continental_test.obj
 0003:000044c0       $SG17621                   00000001800364c0     c4_continental_test.obj
 0003:00004534       $SG17623                   0000000180036534     c4_continental_test.obj
 0003:0000453c       $SG18751                   000000018003653c     c4_continental_test.obj
 0003:00004544       $SG17882                   0000000180036544     c4_continental_test.obj
 0003:00004548       $SG17624                   0000000180036548     c4_continental_test.obj
 0003:00004558       $SG17625                   0000000180036558     c4_continental_test.obj
 0003:00004568       $SG17626                   0000000180036568     c4_continental_test.obj
 0003:00004578       $SG17627                   0000000180036578     c4_continental_test.obj
 0003:00004580       $SG17628                   0000000180036580     c4_continental_test.obj
 0003:0000458c       $SG18754                   000000018003658c     c4_continental_test.obj
 0003:00004594       $SG17903                   0000000180036594     c4_continental_test.obj
 0003:00004598       $SG17629                   0000000180036598     c4_continental_test.obj
 0003:000045a8       $SG17631                   00000001800365a8     c4_continental_test.obj
 0003:000045b8       $SG17635                   00000001800365b8     c4_continental_test.obj
 0003:000045c4       $SG17646                   00000001800365c4     c4_continental_test.obj
 0003:000045d0       $SG17630                   00000001800365d0     c4_continental_test.obj
 0003:00004610       $SG17632                   0000000180036610     c4_continental_test.obj
 0003:0000461c       $SG17904                   000000018003661c     c4_continental_test.obj
 0003:00004620       $SG17633                   0000000180036620     c4_continental_test.obj
 0003:0000462c       $SG17905                   000000018003662c     c4_continental_test.obj
 0003:00004630       $SG17634                   0000000180036630     c4_continental_test.obj
 0003:0000463c       $SG17906                   000000018003663c     c4_continental_test.obj
 0003:00004640       $SG17636                   0000000180036640     c4_continental_test.obj
 0003:0000464c       $SG17927                   000000018003664c     c4_continental_test.obj
 0003:00004650       $SG17637                   0000000180036650     c4_continental_test.obj
 0003:0000465c       $SG17928                   000000018003665c     c4_continental_test.obj
 0003:00004660       $SG17638                   0000000180036660     c4_continental_test.obj
 0003:0000466c       $SG17929                   000000018003666c     c4_continental_test.obj
 0003:00004670       $SG17643                   0000000180036670     c4_continental_test.obj
 0003:00004678       $SG17644                   0000000180036678     c4_continental_test.obj
 0003:00004680       $SG17645                   0000000180036680     c4_continental_test.obj
 0003:000046e8       $SG17647                   00000001800366e8     c4_continental_test.obj
 0003:000046f0       $SG17649                   00000001800366f0     c4_continental_test.obj
 0003:00004700       $SG17650                   0000000180036700     c4_continental_test.obj
 0003:00004710       $SG17651                   0000000180036710     c4_continental_test.obj
 0003:00004718       $SG17652                   0000000180036718     c4_continental_test.obj
 0003:00004724       $SG18765                   0000000180036724     c4_continental_test.obj
 0003:0000472c       $SG17915                   000000018003672c     c4_continental_test.obj
 0003:00004734       $SG17930                   0000000180036734     c4_continental_test.obj
 0003:00004738       $SG17653                   0000000180036738     c4_continental_test.obj
 0003:00004744       $SG18766                   0000000180036744     c4_continental_test.obj
 0003:0000474c       $SG17936                   000000018003674c     c4_continental_test.obj
 0003:00004750       $SG17654                   0000000180036750     c4_continental_test.obj
 0003:0000478c       $SG18769                   000000018003678c     c4_continental_test.obj
 0003:00004794       $SG17939                   0000000180036794     c4_continental_test.obj
 0003:0000479c       $SG17951                   000000018003679c     c4_continental_test.obj
 0003:000047a0       $SG17655                   00000001800367a0     c4_continental_test.obj
 0003:000047ac       $SG16927                   00000001800367ac     c4_continental_test.obj
 0003:000047b0       $SG17656                   00000001800367b0     c4_continental_test.obj
 0003:000047bc       $SG17952                   00000001800367bc     c4_continental_test.obj
 0003:000047c0       $SG17657                   00000001800367c0     c4_continental_test.obj
 0003:000047cc       $SG16928                   00000001800367cc     c4_continental_test.obj
 0003:000047d0       $SG17658                   00000001800367d0     c4_continental_test.obj
 0003:000047dc       $SG17953                   00000001800367dc     c4_continental_test.obj
 0003:000047e0       $SG17659                   00000001800367e0     c4_continental_test.obj
 0003:000047ec       $SG17954                   00000001800367ec     c4_continental_test.obj
 0003:000047f0       $SG17660                   00000001800367f0     c4_continental_test.obj
 0003:000047fc       $SG16939                   00000001800367fc     c4_continental_test.obj
 0003:00004800       $SG17661                   0000000180036800     c4_continental_test.obj
 0003:0000480c       $SG16940                   000000018003680c     c4_continental_test.obj
 0003:00004810       $SG17662                   0000000180036810     c4_continental_test.obj
 0003:0000481c       $SG17975                   000000018003681c     c4_continental_test.obj
 0003:00004820       c4_debug_family_names      0000000180036820     c4_continental_test.obj
 0003:00004850       $SG17667                   0000000180036850     c4_continental_test.obj
 0003:00004858       $SG17668                   0000000180036858     c4_continental_test.obj
 0003:00004860       $SG16644                   0000000180036860     c4_continental_test.obj
 0003:00004868       $SG17669                   0000000180036868     c4_continental_test.obj
 0003:000048a4       $SG17670                   00000001800368a4     c4_continental_test.obj
 0003:000048ac       $SG17671                   00000001800368ac     c4_continental_test.obj
 0003:000048b4       $SG16647                   00000001800368b4     c4_continental_test.obj
 0003:000048bc       $SG18790                   00000001800368bc     c4_continental_test.obj
 0003:000048c4       $SG17976                   00000001800368c4     c4_continental_test.obj
 0003:000048c8       $SG17672                   00000001800368c8     c4_continental_test.obj
 0003:000048dc       $SG17977                   00000001800368dc     c4_continental_test.obj
 0003:000048e0       $SG17673                   00000001800368e0     c4_continental_test.obj
 0003:000048f0       $SG17674                   00000001800368f0     c4_continental_test.obj
 0003:00004900       $SG17676                   0000000180036900     c4_continental_test.obj
 0003:0000490c       $SG18791                   000000018003690c     c4_continental_test.obj
 0003:00004914       $SG17978                   0000000180036914     c4_continental_test.obj
 0003:00004918       $SG17677                   0000000180036918     c4_continental_test.obj
 0003:00004928       $SG17679                   0000000180036928     c4_continental_test.obj
 0003:00004938       $SG17683                   0000000180036938     c4_continental_test.obj
 0003:00004944       $SG17694                   0000000180036944     c4_continental_test.obj
 0003:00004950       $SG17678                   0000000180036950     c4_continental_test.obj
 0003:00004994       $SG16954                   0000000180036994     c4_continental_test.obj
 0003:00004998       $SG17680                   0000000180036998     c4_continental_test.obj
 0003:000049a4       $SG16963                   00000001800369a4     c4_continental_test.obj
 0003:000049a8       $SG17681                   00000001800369a8     c4_continental_test.obj
 0003:000049b4       $SG16964                   00000001800369b4     c4_continental_test.obj
 0003:000049b8       $SG17682                   00000001800369b8     c4_continental_test.obj
 0003:000049c4       $SG17999                   00000001800369c4     c4_continental_test.obj
 0003:000049c8       $SG17684                   00000001800369c8     c4_continental_test.obj
 0003:000049d4       $SG18000                   00000001800369d4     c4_continental_test.obj
 0003:000049d8       $SG17685                   00000001800369d8     c4_continental_test.obj
 0003:000049e4       $SG18001                   00000001800369e4     c4_continental_test.obj
 0003:000049e8       $SG17686                   00000001800369e8     c4_continental_test.obj
 0003:000049f4       $SG18002                   00000001800369f4     c4_continental_test.obj
 0003:000049f8       $SG17691                   00000001800369f8     c4_continental_test.obj
 0003:00004a00       $SG17692                   0000000180036a00     c4_continental_test.obj
 0003:00004a08       $SG17693                   0000000180036a08     c4_continental_test.obj
 0003:00004a48       $SG17695                   0000000180036a48     c4_continental_test.obj
 0003:00004a50       $SG18720                   0000000180036a50     c4_continental_test.obj
 0003:00004a5c       $SG18794                   0000000180036a5c     c4_continental_test.obj
 0003:00004a64       $SG17987                   0000000180036a64     c4_continental_test.obj
 0003:00004a6c       $SG18023                   0000000180036a6c     c4_continental_test.obj
 0003:00004a70       $SG17696                   0000000180036a70     c4_continental_test.obj
 0003:00004a80       $SG18721                   0000000180036a80     c4_continental_test.obj
 0003:00004a8c       $SG19009                   0000000180036a8c     c4_continental_test.obj
 0003:00004a94       $SG18011                   0000000180036a94     c4_continental_test.obj
 0003:00004a9c       $SG18024                   0000000180036a9c     c4_continental_test.obj
 0003:00004aa0       $SG17697                   0000000180036aa0     c4_continental_test.obj
 0003:00004ab0       $SG17698                   0000000180036ab0     c4_continental_test.obj
 0003:00004ac0       $SG18724                   0000000180036ac0     c4_continental_test.obj
 0003:00004acc       $SG18025                   0000000180036acc     c4_continental_test.obj
 0003:00004ad0       $SG17700                   0000000180036ad0     c4_continental_test.obj
 0003:00004adc       $SG18026                   0000000180036adc     c4_continental_test.obj
 0003:00004ae0       $SG18725                   0000000180036ae0     c4_continental_test.obj
 0003:00004aec       $SG18047                   0000000180036aec     c4_continental_test.obj
 0003:00004af0       $SG17701                   0000000180036af0     c4_continental_test.obj
 0003:00004afc       $SG18035                   0000000180036afc     c4_continental_test.obj
 0003:00004b04       $SG18048                   0000000180036b04     c4_continental_test.obj
 0003:00004b08       $SG18726                   0000000180036b08     c4_continental_test.obj
 0003:00004b10       $SG17702                   0000000180036b10     c4_continental_test.obj
 0003:00004b50       $SG18727                   0000000180036b50     c4_continental_test.obj
 0003:00004b58       $SG17703                   0000000180036b58     c4_continental_test.obj
 0003:00004b64       $SG18049                   0000000180036b64     c4_continental_test.obj
 0003:00004b68       $SG17704                   0000000180036b68     c4_continental_test.obj
 0003:00004b74       $SG18050                   0000000180036b74     c4_continental_test.obj
 0003:00004b78       $SG17705                   0000000180036b78     c4_continental_test.obj
 0003:00004b84       $SG17026                   0000000180036b84     c4_continental_test.obj
 0003:00004b88       $SG17706                   0000000180036b88     c4_continental_test.obj
 0003:00004b94       $SG18071                   0000000180036b94     c4_continental_test.obj
 0003:00004b98       $SG17707                   0000000180036b98     c4_continental_test.obj
 0003:00004ba4       $SG18072                   0000000180036ba4     c4_continental_test.obj
 0003:00004ba8       $SG18732                   0000000180036ba8     c4_continental_test.obj
 0003:00004bc0       $SG17708                   0000000180036bc0     c4_continental_test.obj
 0003:00004bcc       $SG18073                   0000000180036bcc     c4_continental_test.obj
 0003:00004bd0       $SG18733                   0000000180036bd0     c4_continental_test.obj
 0003:00004bdc       $SG18059                   0000000180036bdc     c4_continental_test.obj
 0003:00004be4       $SG18074                   0000000180036be4     c4_continental_test.obj
 0003:00004be8       $SG17709                   0000000180036be8     c4_continental_test.obj
 0003:00004bf4       $SG18095                   0000000180036bf4     c4_continental_test.obj
 0003:00004bf8       $SG17710                   0000000180036bf8     c4_continental_test.obj
 0003:00004c04       $SG18735                   0000000180036c04     c4_continental_test.obj
 0003:00004c0c       $SG18736                   0000000180036c0c     c4_continental_test.obj
 0003:00004c14       $SG18737                   0000000180036c14     c4_continental_test.obj
 0003:00004c1c       $SG18738                   0000000180036c1c     c4_continental_test.obj
 0003:00004c24       $SG18096                   0000000180036c24     c4_continental_test.obj
 0003:00004c28       $SG18739                   0000000180036c28     c4_continental_test.obj
 0003:00004c34       $SG18097                   0000000180036c34     c4_continental_test.obj
 0003:00004c38       $SG17715                   0000000180036c38     c4_continental_test.obj
 0003:00004c40       $SG18740                   0000000180036c40     c4_continental_test.obj
 0003:00004c4c       $SG18098                   0000000180036c4c     c4_continental_test.obj
 0003:00004c50       $SG17716                   0000000180036c50     c4_continental_test.obj
 0003:00004c58       $SG17717                   0000000180036c58     c4_continental_test.obj
 0003:00004c98       $SG17718                   0000000180036c98     c4_continental_test.obj
 0003:00004ca0       $SG17719                   0000000180036ca0     c4_continental_test.obj
 0003:00004ca8       $SG17720                   0000000180036ca8     c4_continental_test.obj
 0003:00004cb8       $SG17721                   0000000180036cb8     c4_continental_test.obj
 0003:00004cc8       $SG18746                   0000000180036cc8     c4_continental_test.obj
 0003:00004cd0       $SG17722                   0000000180036cd0     c4_continental_test.obj
 0003:00004ce0       $SG18748                   0000000180036ce0     c4_continental_test.obj
 0003:00004ce8       $SG17724                   0000000180036ce8     c4_continental_test.obj
 0003:00004cf4       $SG18749                   0000000180036cf4     c4_continental_test.obj
 0003:00004cfc       $SG18104                   0000000180036cfc     c4_continental_test.obj
 0003:00004d04       $SG18107                   0000000180036d04     c4_continental_test.obj
 0003:00004d0c       $SG17094                   0000000180036d0c     c4_continental_test.obj
 0003:00004d10       $SG17725                   0000000180036d10     c4_continental_test.obj
 0003:00004d20       $SG17726                   0000000180036d20     c4_continental_test.obj
 0003:00004d60       $SG17727                   0000000180036d60     c4_continental_test.obj
 0003:00004d6c       $SG18119                   0000000180036d6c     c4_continental_test.obj
 0003:00004d70       $SG17728                   0000000180036d70     c4_continental_test.obj
 0003:00004d7c       $SG18753                   0000000180036d7c     c4_continental_test.obj
 0003:00004d84       $SG18120                   0000000180036d84     c4_continental_test.obj
 0003:00004d88       $SG17729                   0000000180036d88     c4_continental_test.obj
 0003:00004d94       $SG18121                   0000000180036d94     c4_continental_test.obj
 0003:00004d98       $SG17730                   0000000180036d98     c4_continental_test.obj
 0003:00004da4       $SG18755                   0000000180036da4     c4_continental_test.obj
 0003:00004dac       $SG18122                   0000000180036dac     c4_continental_test.obj
 0003:00004db0       $SG17731                   0000000180036db0     c4_continental_test.obj
 0003:00004dbc       $SG18143                   0000000180036dbc     c4_continental_test.obj
 0003:00004dc0       $SG18756                   0000000180036dc0     c4_continental_test.obj
 0003:00004dcc       $SG18144                   0000000180036dcc     c4_continental_test.obj
 0003:00004dd0       $SG17732                   0000000180036dd0     c4_continental_test.obj
 0003:00004ddc       $SG18145                   0000000180036ddc     c4_continental_test.obj
 0003:00004de0       $SG17733                   0000000180036de0     c4_continental_test.obj
 0003:00004dec       $SG18146                   0000000180036dec     c4_continental_test.obj
 0003:00004df0       $SG17734                   0000000180036df0     c4_continental_test.obj
 0003:00004dfc       $SG18761                   0000000180036dfc     c4_continental_test.obj
 0003:00004e04       $SG18763                   0000000180036e04     c4_continental_test.obj
 0003:00004e0c       $SG18131                   0000000180036e0c     c4_continental_test.obj
 0003:00004e14       $SG18167                   0000000180036e14     c4_continental_test.obj
 0003:00004e18       $SG17739                   0000000180036e18     c4_continental_test.obj
 0003:00004e20       $SG18764                   0000000180036e20     c4_continental_test.obj
 0003:00004e28       $SG17740                   0000000180036e28     c4_continental_test.obj
 0003:00004e30       $SG17741                   0000000180036e30     c4_continental_test.obj
 0003:00004e70       $SG17742                   0000000180036e70     c4_continental_test.obj
 0003:00004e78       $SG17743                   0000000180036e78     c4_continental_test.obj
 0003:00004e80       $SG18768                   0000000180036e80     c4_continental_test.obj
 0003:00004e88       $SG17744                   0000000180036e88     c4_continental_test.obj
 0003:00004e98       $SG17745                   0000000180036e98     c4_continental_test.obj
 0003:00004ea8       $SG18770                   0000000180036ea8     c4_continental_test.obj
 0003:00004eb0       $SG17746                   0000000180036eb0     c4_continental_test.obj
 0003:00004ec0       $SG18771                   0000000180036ec0     c4_continental_test.obj
 0003:00004ecc       $SG18168                   0000000180036ecc     c4_continental_test.obj
 0003:00004ed0       $SG17747                   0000000180036ed0     c4_continental_test.obj
 0003:00004ee8       $SG17748                   0000000180036ee8     c4_continental_test.obj
 0003:00004ef4       $SG18169                   0000000180036ef4     c4_continental_test.obj
 0003:00004ef8       $SG18773                   0000000180036ef8     c4_continental_test.obj
 0003:00004f04       $SG18170                   0000000180036f04     c4_continental_test.obj
 0003:00004f08       $SG17749                   0000000180036f08     c4_continental_test.obj
 0003:00004f14       $SG18775                   0000000180036f14     c4_continental_test.obj
 0003:00004f20       $SG17750                   0000000180036f20     c4_continental_test.obj
 0003:00004f60       $SG17751                   0000000180036f60     c4_continental_test.obj
 0003:00004f6c       $SG18776                   0000000180036f6c     c4_continental_test.obj
 0003:00004f74       $SG18176                   0000000180036f74     c4_continental_test.obj
 0003:00004f7c       $SG18179                   0000000180036f7c     c4_continental_test.obj
 0003:00004f84       $SG18191                   0000000180036f84     c4_continental_test.obj
 0003:00004f88       $SG17752                   0000000180036f88     c4_continental_test.obj
 0003:00004f94       $SG18777                   0000000180036f94     c4_continental_test.obj
 0003:00004f9c       $SG18192                   0000000180036f9c     c4_continental_test.obj
 0003:00004fa0       $SG17753                   0000000180036fa0     c4_continental_test.obj
 0003:00004fac       $SG18778                   0000000180036fac     c4_continental_test.obj
 0003:00004fb4       $SG18193                   0000000180036fb4     c4_continental_test.obj
 0003:00004fb8       $SG17754                   0000000180036fb8     c4_continental_test.obj
 0003:00004fc4       $SG18194                   0000000180036fc4     c4_continental_test.obj
 0003:00004fc8       $SG18779                   0000000180036fc8     c4_continental_test.obj
 0003:00004fd4       $SG18215                   0000000180036fd4     c4_continental_test.obj
 0003:00004fd8       $SG17755                   0000000180036fd8     c4_continental_test.obj
 0003:00004fe4       $SG18216                   0000000180036fe4     c4_continental_test.obj
 0003:00004fe8       $SG18780                   0000000180036fe8     c4_continental_test.obj
 0003:00004ff4       $SG18217                   0000000180036ff4     c4_continental_test.obj
 0003:00004ff8       $SG17756                   0000000180036ff8     c4_continental_test.obj
 0003:00005004       $SG18218                   0000000180037004     c4_continental_test.obj
 0003:00005008       $SG17757                   0000000180037008     c4_continental_test.obj
 0003:00005014       $SG18239                   0000000180037014     c4_continental_test.obj
 0003:00005018       $SG17758                   0000000180037018     c4_continental_test.obj
 0003:00005024       $SG18786                   0000000180037024     c4_continental_test.obj
 0003:0000502c       $SG18227                   000000018003702c     c4_continental_test.obj
 0003:00005034       $SG18240                   0000000180037034     c4_continental_test.obj
 0003:00005038       $SG17763                   0000000180037038     c4_continental_test.obj
 0003:00005040       $SG18788                   0000000180037040     c4_continental_test.obj
 0003:00005048       $SG17764                   0000000180037048     c4_continental_test.obj
 0003:00005050       $SG18789                   0000000180037050     c4_continental_test.obj
 0003:00005058       $SG17766                   0000000180037058     c4_continental_test.obj
 0003:00005060       $SG17765                   0000000180037060     c4_continental_test.obj
 0003:000050a0       $SG17767                   00000001800370a0     c4_continental_test.obj
 0003:000050a8       $SG17768                   00000001800370a8     c4_continental_test.obj
 0003:000050bc       $SG18793                   00000001800370bc     c4_continental_test.obj
 0003:000050c4       $SG18241                   00000001800370c4     c4_continental_test.obj
 0003:000050c8       $SG17769                   00000001800370c8     c4_continental_test.obj
 0003:000050d8       $SG17770                   00000001800370d8     c4_continental_test.obj
 0003:000050e8       $SG18795                   00000001800370e8     c4_continental_test.obj
 0003:000050f0       $SG17771                   00000001800370f0     c4_continental_test.obj
 0003:000050f8       $SG18796                   00000001800370f8     c4_continental_test.obj
 0003:00005104       $SG18242                   0000000180037104     c4_continental_test.obj
 0003:00005108       $SG17772                   0000000180037108     c4_continental_test.obj
 0003:00005114       $SG18251                   0000000180037114     c4_continental_test.obj
 0003:0000511c       $SG18263                   000000018003711c     c4_continental_test.obj
 0003:00005120       $SG18797                   0000000180037120     c4_continental_test.obj
 0003:00005128       $SG17773                   0000000180037128     c4_continental_test.obj
 0003:00005138       $SG17775                   0000000180037138     c4_continental_test.obj
 0003:00005148       $SG17779                   0000000180037148     c4_continental_test.obj
 0003:00005154       $SG17790                   0000000180037154     c4_continental_test.obj
 0003:00005160       $SG17774                   0000000180037160     c4_continental_test.obj
 0003:000051a4       $SG18264                   00000001800371a4     c4_continental_test.obj
 0003:000051a8       $SG17776                   00000001800371a8     c4_continental_test.obj
 0003:000051b4       $SG18265                   00000001800371b4     c4_continental_test.obj
 0003:000051b8       $SG17777                   00000001800371b8     c4_continental_test.obj
 0003:000051c4       $SG18266                   00000001800371c4     c4_continental_test.obj
 0003:000051c8       $SG17778                   00000001800371c8     c4_continental_test.obj
 0003:000051d4       $SG18287                   00000001800371d4     c4_continental_test.obj
 0003:000051d8       $SG17780                   00000001800371d8     c4_continental_test.obj
 0003:000051e4       $SG18288                   00000001800371e4     c4_continental_test.obj
 0003:000051e8       $SG17781                   00000001800371e8     c4_continental_test.obj
 0003:000051f4       $SG18289                   00000001800371f4     c4_continental_test.obj
 0003:000051f8       $SG17782                   00000001800371f8     c4_continental_test.obj
 0003:00005204       $SG18290                   0000000180037204     c4_continental_test.obj
 0003:00005208       $SG18811                   0000000180037208     c4_continental_test.obj
 0003:00005218       $SG17787                   0000000180037218     c4_continental_test.obj
 0003:00005220       $SG18812                   0000000180037220     c4_continental_test.obj
 0003:00005230       $SG17788                   0000000180037230     c4_continental_test.obj
 0003:00005238       $SG18813                   0000000180037238     c4_continental_test.obj
 0003:00005240       $SG17789                   0000000180037240     c4_continental_test.obj
 0003:00005284       $SG18311                   0000000180037284     c4_continental_test.obj
 0003:00005288       $SG18814                   0000000180037288     c4_continental_test.obj
 0003:00005290       $SG17791                   0000000180037290     c4_continental_test.obj
 0003:00005298       $SG17792                   0000000180037298     c4_continental_test.obj
 0003:000052b8       $SG17795                   00000001800372b8     c4_continental_test.obj
 0003:000052c0       $SG18817                   00000001800372c0     c4_continental_test.obj
 0003:0000532c       $SG18312                   000000018003732c     c4_continental_test.obj
 0003:00005330       $SG17793                   0000000180037330     c4_continental_test.obj
 0003:00005340       $SG18818                   0000000180037340     c4_continental_test.obj
 0003:000053ac       $SG18313                   00000001800373ac     c4_continental_test.obj
 0003:000053b0       $SG17794                   00000001800373b0     c4_continental_test.obj
 0003:000053c0       $SG17796                   00000001800373c0     c4_continental_test.obj
 0003:000053cc       $SG18296                   00000001800373cc     c4_continental_test.obj
 0003:000053d4       $SG18314                   00000001800373d4     c4_continental_test.obj
 0003:000053d8       $SG17797                   00000001800373d8     c4_continental_test.obj
 0003:000053e8       $SG17799                   00000001800373e8     c4_continental_test.obj
 0003:000053f8       $SG17803                   00000001800373f8     c4_continental_test.obj
 0003:00005404       $SG17814                   0000000180037404     c4_continental_test.obj
 0003:00005410       $SG17798                   0000000180037410     c4_continental_test.obj
 0003:00005458       $SG17800                   0000000180037458     c4_continental_test.obj
 0003:00005464       $SG18335                   0000000180037464     c4_continental_test.obj
 0003:00005468       $SG17801                   0000000180037468     c4_continental_test.obj
 0003:00005474       $SG18336                   0000000180037474     c4_continental_test.obj
 0003:00005478       $SG17802                   0000000180037478     c4_continental_test.obj
 0003:00005484       $SG18337                   0000000180037484     c4_continental_test.obj
 0003:00005488       $SG17804                   0000000180037488     c4_continental_test.obj
 0003:00005494       $SG18338                   0000000180037494     c4_continental_test.obj
 0003:00005498       $SG17805                   0000000180037498     c4_continental_test.obj
 0003:000054a4       $SG17327                   00000001800374a4     c4_continental_test.obj
 0003:000054a8       $SG17806                   00000001800374a8     c4_continental_test.obj
 0003:000054b4       $SG17328                   00000001800374b4     c4_continental_test.obj
 0003:000054b8       $SG17811                   00000001800374b8     c4_continental_test.obj
 0003:000054c0       $SG17812                   00000001800374c0     c4_continental_test.obj
 0003:000054c8       $SG18839                   00000001800374c8     c4_continental_test.obj
 0003:000054d0       $SG17813                   00000001800374d0     c4_continental_test.obj
 0003:00005518       $SG17815                   0000000180037518     c4_continental_test.obj
 0003:00005520       $SG17816                   0000000180037520     c4_continental_test.obj
 0003:00005534       $SG17315                   0000000180037534     c4_continental_test.obj
 0003:0000553c       $SG17329                   000000018003753c     c4_continental_test.obj
 0003:00005540       $SG17817                   0000000180037540     c4_continental_test.obj
 0003:00005550       $SG17818                   0000000180037550     c4_continental_test.obj
 0003:00005560       $SG17820                   0000000180037560     c4_continental_test.obj
 0003:0000556c       $SG17330                   000000018003756c     c4_continental_test.obj
 0003:00005570       $SG17821                   0000000180037570     c4_continental_test.obj
 0003:0000557c       $SG18359                   000000018003757c     c4_continental_test.obj
 0003:00005580       $SG18846                   0000000180037580     c4_continental_test.obj
 0003:00005590       $SG17822                   0000000180037590     c4_continental_test.obj
 0003:000055d4       $SG18360                   00000001800375d4     c4_continental_test.obj
 0003:000055d8       $SG17823                   00000001800375d8     c4_continental_test.obj
 0003:000055e4       $SG18361                   00000001800375e4     c4_continental_test.obj
 0003:000055e8       ?condStart@?7??chart_debug_initialization@@9@9 00000001800375e8     c4_continental_test.obj
 0003:000055f0       $SG17824                   00000001800375f0     c4_continental_test.obj
 0003:000055fc       $SG18362                   00000001800375fc     c4_continental_test.obj
 0003:00005600       $SG17825                   0000000180037600     c4_continental_test.obj
 0003:0000560c       $SG18369                   000000018003760c     c4_continental_test.obj
 0003:00005610       ?condEnd@?7??chart_debug_initialization@@9@9 0000000180037610     c4_continental_test.obj
 0003:00005618       $SG17826                   0000000180037618     c4_continental_test.obj
 0003:00005624       $SG17351                   0000000180037624     c4_continental_test.obj
 0003:00005628       $SG17827                   0000000180037628     c4_continental_test.obj
 0003:00005634       $SG18376                   0000000180037634     c4_continental_test.obj
 0003:00005638       ?pfixExpr@?7??chart_debug_initialization@@9@9 0000000180037638     c4_continental_test.obj
 0003:00005644       $SG17352                   0000000180037644     c4_continental_test.obj
 0003:00005648       $SG17828                   0000000180037648     c4_continental_test.obj
 0003:00005654       $SG17353                   0000000180037654     c4_continental_test.obj
 0003:00005658       $SG17829                   0000000180037658     c4_continental_test.obj
 0003:00005664       $SG17354                   0000000180037664     c4_continental_test.obj
 0003:00005668       $SG17830                   0000000180037668     c4_continental_test.obj
 0003:00005674       $SG17375                   0000000180037674     c4_continental_test.obj
 0003:00005678       $SG17835                   0000000180037678     c4_continental_test.obj
 0003:00005680       $SG17836                   0000000180037680     c4_continental_test.obj
 0003:00005688       $SG17838                   0000000180037688     c4_continental_test.obj
 0003:00005690       $SG17837                   0000000180037690     c4_continental_test.obj
 0003:000056d8       $SG17839                   00000001800376d8     c4_continental_test.obj
 0003:000056e0       $SG17840                   00000001800376e0     c4_continental_test.obj
 0003:000056f0       $SG17841                   00000001800376f0     c4_continental_test.obj
 0003:00005700       $SG17842                   0000000180037700     c4_continental_test.obj
 0003:00005710       $SG17844                   0000000180037710     c4_continental_test.obj
 0003:0000571c       $SG17339                   000000018003771c     c4_continental_test.obj
 0003:00005724       $SG17376                   0000000180037724     c4_continental_test.obj
 0003:00005728       $SG17845                   0000000180037728     c4_continental_test.obj
 0003:00005738       $SG17847                   0000000180037738     c4_continental_test.obj
 0003:00005748       $SG17851                   0000000180037748     c4_continental_test.obj
 0003:00005754       $SG17862                   0000000180037754     c4_continental_test.obj
 0003:00005760       $SG17846                   0000000180037760     c4_continental_test.obj
 0003:000057a0       $SG17848                   00000001800377a0     c4_continental_test.obj
 0003:000057ac       $SG17377                   00000001800377ac     c4_continental_test.obj
 0003:000057b0       $SG17849                   00000001800377b0     c4_continental_test.obj
 0003:000057bc       $SG17378                   00000001800377bc     c4_continental_test.obj
 0003:000057c0       $SG17850                   00000001800377c0     c4_continental_test.obj
 0003:000057cc       $SG17399                   00000001800377cc     c4_continental_test.obj
 0003:000057d0       $SG17852                   00000001800377d0     c4_continental_test.obj
 0003:000057dc       $SG17400                   00000001800377dc     c4_continental_test.obj
 0003:000057e0       $SG17853                   00000001800377e0     c4_continental_test.obj
 0003:000057ec       $SG17401                   00000001800377ec     c4_continental_test.obj
 0003:000057f0       $SG17854                   00000001800377f0     c4_continental_test.obj
 0003:000057fc       $SG17402                   00000001800377fc     c4_continental_test.obj
 0003:00005800       $SG18880                   0000000180037800     c4_continental_test.obj
 0003:00005818       $SG17859                   0000000180037818     c4_continental_test.obj
 0003:00005820       $SG17860                   0000000180037820     c4_continental_test.obj
 0003:00005828       $SG17861                   0000000180037828     c4_continental_test.obj
 0003:00005868       $SG17863                   0000000180037868     c4_continental_test.obj
 0003:00005870       $SG17864                   0000000180037870     c4_continental_test.obj
 0003:00005880       $SG17865                   0000000180037880     c4_continental_test.obj
 0003:00005890       $SG17866                   0000000180037890     c4_continental_test.obj
 0003:000058a0       $SG17867                   00000001800378a0     c4_continental_test.obj
 0003:000058b8       $SG17868                   00000001800378b8     c4_continental_test.obj
 0003:000058c4       $SG17387                   00000001800378c4     c4_continental_test.obj
 0003:000058d0       $SG17869                   00000001800378d0     c4_continental_test.obj
 0003:000058e0       $SG17870                   00000001800378e0     c4_continental_test.obj
 0003:00005920       $SG17871                   0000000180037920     c4_continental_test.obj
 0003:00005930       $SG17872                   0000000180037930     c4_continental_test.obj
 0003:00005940       $SG17873                   0000000180037940     c4_continental_test.obj
 0003:00005950       $SG17874                   0000000180037950     c4_continental_test.obj
 0003:00005960       $SG17875                   0000000180037960     c4_continental_test.obj
 0003:00005970       $SG17876                   0000000180037970     c4_continental_test.obj
 0003:00005980       $SG17877                   0000000180037980     c4_continental_test.obj
 0003:00005990       $SG17878                   0000000180037990     c4_continental_test.obj
 0003:000059a0       $SG17883                   00000001800379a0     c4_continental_test.obj
 0003:000059a8       $SG17884                   00000001800379a8     c4_continental_test.obj
 0003:000059b0       $SG17885                   00000001800379b0     c4_continental_test.obj
 0003:000059f0       $SG16861                   00000001800379f0     c4_continental_test.obj
 0003:000059f8       $SG17886                   00000001800379f8     c4_continental_test.obj
 0003:00005a00       $SG17887                   0000000180037a00     c4_continental_test.obj
 0003:00005a08       $SG17888                   0000000180037a08     c4_continental_test.obj
 0003:00005a28       $SG17889                   0000000180037a28     c4_continental_test.obj
 0003:00005a38       $SG16865                   0000000180037a38     c4_continental_test.obj
 0003:00005a58       $SG17890                   0000000180037a58     c4_continental_test.obj
 0003:00005a68       $SG18915                   0000000180037a68     c4_continental_test.obj
 0003:00005a80       $SG17891                   0000000180037a80     c4_continental_test.obj
 0003:00005a98       $SG17892                   0000000180037a98     c4_continental_test.obj
 0003:00005aa8       $SG17893                   0000000180037aa8     c4_continental_test.obj
 0003:00005ab8       $SG18919                   0000000180037ab8     c4_continental_test.obj
 0003:00005ac8       $SG17895                   0000000180037ac8     c4_continental_test.obj
 0003:00005ad8       $SG17899                   0000000180037ad8     c4_continental_test.obj
 0003:00005ae4       $SG17910                   0000000180037ae4     c4_continental_test.obj
 0003:00005af0       $SG17894                   0000000180037af0     c4_continental_test.obj
 0003:00005b40       $SG17896                   0000000180037b40     c4_continental_test.obj
 0003:00005b50       $SG17897                   0000000180037b50     c4_continental_test.obj
 0003:00005b60       $SG17898                   0000000180037b60     c4_continental_test.obj
 0003:00005b70       $SG18923                   0000000180037b70     c4_continental_test.obj
 0003:00005bb8       $SG17900                   0000000180037bb8     c4_continental_test.obj
 0003:00005bc8       $SG17901                   0000000180037bc8     c4_continental_test.obj
 0003:00005bd8       $SG17902                   0000000180037bd8     c4_continental_test.obj
 0003:00005be8       $SG17907                   0000000180037be8     c4_continental_test.obj
 0003:00005bf0       $SG17908                   0000000180037bf0     c4_continental_test.obj
 0003:00005bf8       $SG17909                   0000000180037bf8     c4_continental_test.obj
 0003:00005c38       $SG17911                   0000000180037c38     c4_continental_test.obj
 0003:00005c40       $SG17912                   0000000180037c40     c4_continental_test.obj
 0003:00005c50       $SG17913                   0000000180037c50     c4_continental_test.obj
 0003:00005c60       $SG18938                   0000000180037c60     c4_continental_test.obj
 0003:00005c78       $SG17914                   0000000180037c78     c4_continental_test.obj
 0003:00005c88       $SG18940                   0000000180037c88     c4_continental_test.obj
 0003:00005c98       $SG17916                   0000000180037c98     c4_continental_test.obj
 0003:00005ca8       $SG17917                   0000000180037ca8     c4_continental_test.obj
 0003:00005cb8       $SG17918                   0000000180037cb8     c4_continental_test.obj
 0003:00005cf8       $SG17919                   0000000180037cf8     c4_continental_test.obj
 0003:00005d08       $SG17923                   0000000180037d08     c4_continental_test.obj
 0003:00005d14       $SG17934                   0000000180037d14     c4_continental_test.obj
 0003:00005d20       $SG18944                   0000000180037d20     c4_continental_test.obj
 0003:00005d68       $SG17920                   0000000180037d68     c4_continental_test.obj
 0003:00005d78       $SG17921                   0000000180037d78     c4_continental_test.obj
 0003:00005d88       $SG17922                   0000000180037d88     c4_continental_test.obj
 0003:00005d98       $SG17924                   0000000180037d98     c4_continental_test.obj
 0003:00005da8       $SG17925                   0000000180037da8     c4_continental_test.obj
 0003:00005db8       $SG17926                   0000000180037db8     c4_continental_test.obj
 0003:00005dc8       $SG17931                   0000000180037dc8     c4_continental_test.obj
 0003:00005dd0       $SG17932                   0000000180037dd0     c4_continental_test.obj
 0003:00005dd8       $SG17933                   0000000180037dd8     c4_continental_test.obj
 0003:00005e14       $SG17935                   0000000180037e14     c4_continental_test.obj
 0003:00005e20       $SG17937                   0000000180037e20     c4_continental_test.obj
 0003:00005e30       $SG17938                   0000000180037e30     c4_continental_test.obj
 0003:00005e40       $SG17940                   0000000180037e40     c4_continental_test.obj
 0003:00005e50       $SG17941                   0000000180037e50     c4_continental_test.obj
 0003:00005e60       $SG17942                   0000000180037e60     c4_continental_test.obj
 0003:00005e98       $SG17943                   0000000180037e98     c4_continental_test.obj
 0003:00005ea8       $SG17944                   0000000180037ea8     c4_continental_test.obj
 0003:00005eb8       $SG17945                   0000000180037eb8     c4_continental_test.obj
 0003:00005ec8       $SG17946                   0000000180037ec8     c4_continental_test.obj
 0003:00005ed8       $SG17947                   0000000180037ed8     c4_continental_test.obj
 0003:00005ee8       $SG17948                   0000000180037ee8     c4_continental_test.obj
 0003:00005ef8       $SG17949                   0000000180037ef8     c4_continental_test.obj
 0003:00005f08       $SG17950                   0000000180037f08     c4_continental_test.obj
 0003:00005f18       $SG17955                   0000000180037f18     c4_continental_test.obj
 0003:00005f20       $SG17956                   0000000180037f20     c4_continental_test.obj
 0003:00005f28       $SG17957                   0000000180037f28     c4_continental_test.obj
 0003:00005f64       $SG17958                   0000000180037f64     c4_continental_test.obj
 0003:00005f6c       $SG17959                   0000000180037f6c     c4_continental_test.obj
 0003:00005f78       $SG17960                   0000000180037f78     c4_continental_test.obj
 0003:00005f88       $SG17961                   0000000180037f88     c4_continental_test.obj
 0003:00005f98       $SG17962                   0000000180037f98     c4_continental_test.obj
 0003:00005fa8       $SG17964                   0000000180037fa8     c4_continental_test.obj
 0003:00005fb8       $SG17965                   0000000180037fb8     c4_continental_test.obj
 0003:00005fc8       $SG17967                   0000000180037fc8     c4_continental_test.obj
 0003:00005fd8       $SG17971                   0000000180037fd8     c4_continental_test.obj
 0003:00005fe4       $SG16955                   0000000180037fe4     c4_continental_test.obj
 0003:00005ff0       $SG17966                   0000000180037ff0     c4_continental_test.obj
 0003:00006030       $SG17968                   0000000180038030     c4_continental_test.obj
 0003:00006040       $SG17969                   0000000180038040     c4_continental_test.obj
 0003:00006050       $SG17970                   0000000180038050     c4_continental_test.obj
 0003:00006060       $SG17972                   0000000180038060     c4_continental_test.obj
 0003:00006070       $SG17973                   0000000180038070     c4_continental_test.obj
 0003:00006080       $SG17974                   0000000180038080     c4_continental_test.obj
 0003:00006090       $SG17979                   0000000180038090     c4_continental_test.obj
 0003:00006098       $SG17980                   0000000180038098     c4_continental_test.obj
 0003:000060a0       $SG17981                   00000001800380a0     c4_continental_test.obj
 0003:000060dc       $SG17982                   00000001800380dc     c4_continental_test.obj
 0003:000060e4       $SG17983                   00000001800380e4     c4_continental_test.obj
 0003:000060f0       $SG17984                   00000001800380f0     c4_continental_test.obj
 0003:00006100       $SG17985                   0000000180038100     c4_continental_test.obj
 0003:00006110       $SG17986                   0000000180038110     c4_continental_test.obj
 0003:00006120       $SG17988                   0000000180038120     c4_continental_test.obj
 0003:00006130       $SG17989                   0000000180038130     c4_continental_test.obj
 0003:00006140       $SG17990                   0000000180038140     c4_continental_test.obj
 0003:00006180       $SG17991                   0000000180038180     c4_continental_test.obj
 0003:00006190       $SG19016                   0000000180038190     c4_continental_test.obj
 0003:000061b8       $SG17992                   00000001800381b8     c4_continental_test.obj
 0003:000061c8       $SG17993                   00000001800381c8     c4_continental_test.obj
 0003:000061d8       $SG17994                   00000001800381d8     c4_continental_test.obj
 0003:000061e8       $SG17995                   00000001800381e8     c4_continental_test.obj
 0003:000061f8       $SG17996                   00000001800381f8     c4_continental_test.obj
 0003:00006208       $SG17997                   0000000180038208     c4_continental_test.obj
 0003:00006218       $SG17998                   0000000180038218     c4_continental_test.obj
 0003:00006228       $SG18003                   0000000180038228     c4_continental_test.obj
 0003:00006230       $SG18004                   0000000180038230     c4_continental_test.obj
 0003:00006238       $SG18006                   0000000180038238     c4_continental_test.obj
 0003:00006240       $SG18005                   0000000180038240     c4_continental_test.obj
 0003:00006280       $SG18007                   0000000180038280     c4_continental_test.obj
 0003:00006288       $SG18008                   0000000180038288     c4_continental_test.obj
 0003:000062a8       $SG18009                   00000001800382a8     c4_continental_test.obj
 0003:000062b8       $SG18010                   00000001800382b8     c4_continental_test.obj
 0003:000062c8       $SG18012                   00000001800382c8     c4_continental_test.obj
 0003:000062d8       $SG19037                   00000001800382d8     c4_continental_test.obj
 0003:000062e8       $SG18013                   00000001800382e8     c4_continental_test.obj
 0003:000062f8       $SG19038                   00000001800382f8     c4_continental_test.obj
 0003:00006310       $SG18014                   0000000180038310     c4_continental_test.obj
 0003:00006360       $SG18015                   0000000180038360     c4_continental_test.obj
 0003:00006370       $SG18016                   0000000180038370     c4_continental_test.obj
 0003:00006380       $SG18017                   0000000180038380     c4_continental_test.obj
 0003:00006390       $SG18018                   0000000180038390     c4_continental_test.obj
 0003:000063a0       $SG18019                   00000001800383a0     c4_continental_test.obj
 0003:000063b0       $SG18020                   00000001800383b0     c4_continental_test.obj
 0003:000063c0       $SG18021                   00000001800383c0     c4_continental_test.obj
 0003:000063d0       $SG18022                   00000001800383d0     c4_continental_test.obj
 0003:000063e0       $SG18027                   00000001800383e0     c4_continental_test.obj
 0003:000063e8       $SG19052                   00000001800383e8     c4_continental_test.obj
 0003:00006418       $SG18028                   0000000180038418     c4_continental_test.obj
 0003:00006420       $SG18029                   0000000180038420     c4_continental_test.obj
 0003:0000645c       $SG18030                   000000018003845c     c4_continental_test.obj
 0003:00006464       $SG18031                   0000000180038464     c4_continental_test.obj
 0003:00006470       $SG18032                   0000000180038470     c4_continental_test.obj
 0003:00006480       $SG18033                   0000000180038480     c4_continental_test.obj
 0003:00006490       $SG18034                   0000000180038490     c4_continental_test.obj
 0003:000064a0       $SG18036                   00000001800384a0     c4_continental_test.obj
 0003:000064b0       $SG18037                   00000001800384b0     c4_continental_test.obj
 0003:000064c0       $SG18038                   00000001800384c0     c4_continental_test.obj
 0003:00006500       $SG18039                   0000000180038500     c4_continental_test.obj
 0003:00006510       $SG18040                   0000000180038510     c4_continental_test.obj
 0003:00006520       $SG18041                   0000000180038520     c4_continental_test.obj
 0003:00006530       $SG18042                   0000000180038530     c4_continental_test.obj
 0003:00006540       $SG18043                   0000000180038540     c4_continental_test.obj
 0003:00006550       $SG18044                   0000000180038550     c4_continental_test.obj
 0003:00006560       $SG18045                   0000000180038560     c4_continental_test.obj
 0003:00006570       $SG18046                   0000000180038570     c4_continental_test.obj
 0003:00006580       $SG18051                   0000000180038580     c4_continental_test.obj
 0003:00006588       $SG18052                   0000000180038588     c4_continental_test.obj
 0003:00006590       $SG19077                   0000000180038590     c4_continental_test.obj
 0003:000065f8       $SG18054                   00000001800385f8     c4_continental_test.obj
 0003:00006600       $SG18053                   0000000180038600     c4_continental_test.obj
 0003:00006640       $SG18055                   0000000180038640     c4_continental_test.obj
 0003:00006648       $SG18056                   0000000180038648     c4_continental_test.obj
 0003:00006668       $SG18057                   0000000180038668     c4_continental_test.obj
 0003:00006678       $SG18058                   0000000180038678     c4_continental_test.obj
 0003:00006688       $SG18060                   0000000180038688     c4_continental_test.obj
 0003:00006698       $SG18061                   0000000180038698     c4_continental_test.obj
 0003:000066a8       $SG18063                   00000001800386a8     c4_continental_test.obj
 0003:000066b8       $SG18067                   00000001800386b8     c4_continental_test.obj
 0003:000066c4       $SG18078                   00000001800386c4     c4_continental_test.obj
 0003:000066d0       $SG18062                   00000001800386d0     c4_continental_test.obj
 0003:00006720       $SG18064                   0000000180038720     c4_continental_test.obj
 0003:00006730       $SG18065                   0000000180038730     c4_continental_test.obj
 0003:00006740       $SG18066                   0000000180038740     c4_continental_test.obj
 0003:00006750       $SG18068                   0000000180038750     c4_continental_test.obj
 0003:00006760       $SG18069                   0000000180038760     c4_continental_test.obj
 0003:00006770       $SG18070                   0000000180038770     c4_continental_test.obj
 0003:00006780       $SG18075                   0000000180038780     c4_continental_test.obj
 0003:00006788       $SG18076                   0000000180038788     c4_continental_test.obj
 0003:00006790       $SG18077                   0000000180038790     c4_continental_test.obj
 0003:000067cc       $SG18079                   00000001800387cc     c4_continental_test.obj
 0003:000067d8       $SG18080                   00000001800387d8     c4_continental_test.obj
 0003:000067e8       $SG18081                   00000001800387e8     c4_continental_test.obj
 0003:000067f8       $SG18082                   00000001800387f8     c4_continental_test.obj
 0003:00006808       $SG18083                   0000000180038808     c4_continental_test.obj
 0003:00006820       $SG18084                   0000000180038820     c4_continental_test.obj
 0003:00006830       $SG18085                   0000000180038830     c4_continental_test.obj
 0003:00006840       $SG18086                   0000000180038840     c4_continental_test.obj
 0003:00006880       $SG18087                   0000000180038880     c4_continental_test.obj
 0003:00006890       $SG18088                   0000000180038890     c4_continental_test.obj
 0003:000068a0       $SG18089                   00000001800388a0     c4_continental_test.obj
 0003:000068b0       $SG18090                   00000001800388b0     c4_continental_test.obj
 0003:000068c0       $SG18091                   00000001800388c0     c4_continental_test.obj
 0003:000068d0       $SG18092                   00000001800388d0     c4_continental_test.obj
 0003:000068e0       $SG18093                   00000001800388e0     c4_continental_test.obj
 0003:000068f0       $SG18094                   00000001800388f0     c4_continental_test.obj
 0003:00006900       $SG18099                   0000000180038900     c4_continental_test.obj
 0003:00006908       $SG18100                   0000000180038908     c4_continental_test.obj
 0003:00006910       $SG18101                   0000000180038910     c4_continental_test.obj
 0003:0000694c       $SG18102                   000000018003894c     c4_continental_test.obj
 0003:00006954       $SG18103                   0000000180038954     c4_continental_test.obj
 0003:00006960       $SG18105                   0000000180038960     c4_continental_test.obj
 0003:00006970       $SG18106                   0000000180038970     c4_continental_test.obj
 0003:00006980       $SG18108                   0000000180038980     c4_continental_test.obj
 0003:00006990       $SG18109                   0000000180038990     c4_continental_test.obj
 0003:000069a0       $SG18110                   00000001800389a0     c4_continental_test.obj
 0003:000069d8       $SG18111                   00000001800389d8     c4_continental_test.obj
 0003:000069e8       $SG18112                   00000001800389e8     c4_continental_test.obj
 0003:000069f8       $SG18113                   00000001800389f8     c4_continental_test.obj
 0003:00006a08       $SG18114                   0000000180038a08     c4_continental_test.obj
 0003:00006a18       $SG18115                   0000000180038a18     c4_continental_test.obj
 0003:00006a28       $SG18116                   0000000180038a28     c4_continental_test.obj
 0003:00006a38       $SG18117                   0000000180038a38     c4_continental_test.obj
 0003:00006a48       $SG18118                   0000000180038a48     c4_continental_test.obj
 0003:00006a58       $SG18123                   0000000180038a58     c4_continental_test.obj
 0003:00006a60       $SG18124                   0000000180038a60     c4_continental_test.obj
 0003:00006a68       $SG18125                   0000000180038a68     c4_continental_test.obj
 0003:00006aa0       $SG18126                   0000000180038aa0     c4_continental_test.obj
 0003:00006aa8       $SG18127                   0000000180038aa8     c4_continental_test.obj
 0003:00006ab0       $SG18128                   0000000180038ab0     c4_continental_test.obj
 0003:00006ad0       $SG18129                   0000000180038ad0     c4_continental_test.obj
 0003:00006ae0       $SG18130                   0000000180038ae0     c4_continental_test.obj
 0003:00006af0       $SG18132                   0000000180038af0     c4_continental_test.obj
 0003:00006b00       $SG18133                   0000000180038b00     c4_continental_test.obj
 0003:00006b10       $SG18134                   0000000180038b10     c4_continental_test.obj
 0003:00006b68       $SG18135                   0000000180038b68     c4_continental_test.obj
 0003:00006b78       $SG18136                   0000000180038b78     c4_continental_test.obj
 0003:00006b88       $SG18137                   0000000180038b88     c4_continental_test.obj
 0003:00006b98       $SG18138                   0000000180038b98     c4_continental_test.obj
 0003:00006ba8       $SG18139                   0000000180038ba8     c4_continental_test.obj
 0003:00006bb8       $SG18140                   0000000180038bb8     c4_continental_test.obj
 0003:00006bc8       $SG18141                   0000000180038bc8     c4_continental_test.obj
 0003:00006bd8       $SG18142                   0000000180038bd8     c4_continental_test.obj
 0003:00006be8       $SG18147                   0000000180038be8     c4_continental_test.obj
 0003:00006bf0       $SG18148                   0000000180038bf0     c4_continental_test.obj
 0003:00006bf8       $SG18150                   0000000180038bf8     c4_continental_test.obj
 0003:00006c00       $SG18149                   0000000180038c00     c4_continental_test.obj
 0003:00006c54       $SG18151                   0000000180038c54     c4_continental_test.obj
 0003:00006c60       $SG17127                   0000000180038c60     c4_continental_test.obj
 0003:00006c70       $SG18152                   0000000180038c70     c4_continental_test.obj
 0003:00006c80       $SG18153                   0000000180038c80     c4_continental_test.obj
 0003:00006c90       $SG18154                   0000000180038c90     c4_continental_test.obj
 0003:00006ca0       $SG18155                   0000000180038ca0     c4_continental_test.obj
 0003:00006cb0       $SG18156                   0000000180038cb0     c4_continental_test.obj
 0003:00006cc0       $SG18157                   0000000180038cc0     c4_continental_test.obj
 0003:00006cd0       $SG18158                   0000000180038cd0     c4_continental_test.obj
 0003:00006d10       $SG18159                   0000000180038d10     c4_continental_test.obj
 0003:00006d20       $SG18160                   0000000180038d20     c4_continental_test.obj
 0003:00006d30       $SG18161                   0000000180038d30     c4_continental_test.obj
 0003:00006d40       $SG18162                   0000000180038d40     c4_continental_test.obj
 0003:00006d50       $SG18163                   0000000180038d50     c4_continental_test.obj
 0003:00006d60       $SG18164                   0000000180038d60     c4_continental_test.obj
 0003:00006d70       $SG18165                   0000000180038d70     c4_continental_test.obj
 0003:00006d80       $SG18166                   0000000180038d80     c4_continental_test.obj
 0003:00006d90       $SG18171                   0000000180038d90     c4_continental_test.obj
 0003:00006d98       $SG18172                   0000000180038d98     c4_continental_test.obj
 0003:00006da0       $SG18173                   0000000180038da0     c4_continental_test.obj
 0003:00006df4       $SG18174                   0000000180038df4     c4_continental_test.obj
 0003:00006dfc       $SG18175                   0000000180038dfc     c4_continental_test.obj
 0003:00006e08       $SG18177                   0000000180038e08     c4_continental_test.obj
 0003:00006e18       $SG18178                   0000000180038e18     c4_continental_test.obj
 0003:00006e28       $SG18180                   0000000180038e28     c4_continental_test.obj
 0003:00006e38       $SG18181                   0000000180038e38     c4_continental_test.obj
 0003:00006e48       $SG18182                   0000000180038e48     c4_continental_test.obj
 0003:00006e80       $SG18183                   0000000180038e80     c4_continental_test.obj
 0003:00006e90       $SG18184                   0000000180038e90     c4_continental_test.obj
 0003:00006ea0       $SG18185                   0000000180038ea0     c4_continental_test.obj
 0003:00006eb0       $SG18186                   0000000180038eb0     c4_continental_test.obj
 0003:00006ec0       $SG18187                   0000000180038ec0     c4_continental_test.obj
 0003:00006ed0       $SG18188                   0000000180038ed0     c4_continental_test.obj
 0003:00006ee0       $SG18189                   0000000180038ee0     c4_continental_test.obj
 0003:00006ef0       $SG18190                   0000000180038ef0     c4_continental_test.obj
 0003:00006f00       $SG18195                   0000000180038f00     c4_continental_test.obj
 0003:00006f08       $SG18196                   0000000180038f08     c4_continental_test.obj
 0003:00006f10       $SG18197                   0000000180038f10     c4_continental_test.obj
 0003:00006f64       $SG18198                   0000000180038f64     c4_continental_test.obj
 0003:00006f6c       $SG18199                   0000000180038f6c     c4_continental_test.obj
 0003:00006f78       $SG18200                   0000000180038f78     c4_continental_test.obj
 0003:00006f88       $SG18201                   0000000180038f88     c4_continental_test.obj
 0003:00006f98       $SG18202                   0000000180038f98     c4_continental_test.obj
 0003:00006fa8       $SG18204                   0000000180038fa8     c4_continental_test.obj
 0003:00006fb8       $SG18205                   0000000180038fb8     c4_continental_test.obj
 0003:00006fc8       $SG18207                   0000000180038fc8     c4_continental_test.obj
 0003:00006fd8       $SG18211                   0000000180038fd8     c4_continental_test.obj
 0003:00006fe4       $SG18222                   0000000180038fe4     c4_continental_test.obj
 0003:00006ff0       $SG18206                   0000000180038ff0     c4_continental_test.obj
 0003:00007030       $SG18208                   0000000180039030     c4_continental_test.obj
 0003:00007040       $SG18209                   0000000180039040     c4_continental_test.obj
 0003:00007050       $SG18210                   0000000180039050     c4_continental_test.obj
 0003:00007060       $SG18212                   0000000180039060     c4_continental_test.obj
 0003:00007070       $SG18213                   0000000180039070     c4_continental_test.obj
 0003:00007080       $SG18214                   0000000180039080     c4_continental_test.obj
 0003:00007090       $SG18219                   0000000180039090     c4_continental_test.obj
 0003:00007098       $SG18220                   0000000180039098     c4_continental_test.obj
 0003:000070a0       $SG18221                   00000001800390a0     c4_continental_test.obj
 0003:000070f4       $SG18223                   00000001800390f4     c4_continental_test.obj
 0003:00007100       $SG18224                   0000000180039100     c4_continental_test.obj
 0003:00007110       $SG18225                   0000000180039110     c4_continental_test.obj
 0003:00007120       $SG18226                   0000000180039120     c4_continental_test.obj
 0003:00007130       $SG18228                   0000000180039130     c4_continental_test.obj
 0003:00007140       $SG18229                   0000000180039140     c4_continental_test.obj
 0003:00007150       $SG18230                   0000000180039150     c4_continental_test.obj
 0003:00007190       $SG18231                   0000000180039190     c4_continental_test.obj
 0003:000071a0       $SG18232                   00000001800391a0     c4_continental_test.obj
 0003:000071b0       $SG18233                   00000001800391b0     c4_continental_test.obj
 0003:000071c0       $SG18234                   00000001800391c0     c4_continental_test.obj
 0003:000071d0       $SG18235                   00000001800391d0     c4_continental_test.obj
 0003:000071e0       $SG18236                   00000001800391e0     c4_continental_test.obj
 0003:000071f0       $SG18237                   00000001800391f0     c4_continental_test.obj
 0003:00007200       $SG18238                   0000000180039200     c4_continental_test.obj
 0003:00007210       $SG18243                   0000000180039210     c4_continental_test.obj
 0003:00007218       $SG18244                   0000000180039218     c4_continental_test.obj
 0003:00007220       $SG18245                   0000000180039220     c4_continental_test.obj
 0003:00007260       $SG18246                   0000000180039260     c4_continental_test.obj
 0003:00007268       $SG18247                   0000000180039268     c4_continental_test.obj
 0003:00007270       $SG18248                   0000000180039270     c4_continental_test.obj
 0003:00007288       $SG18249                   0000000180039288     c4_continental_test.obj
 0003:00007298       $SG18250                   0000000180039298     c4_continental_test.obj
 0003:000072a8       $SG18252                   00000001800392a8     c4_continental_test.obj
 0003:000072b8       $SG18253                   00000001800392b8     c4_continental_test.obj
 0003:000072c8       $SG18255                   00000001800392c8     c4_continental_test.obj
 0003:000072d8       $SG18259                   00000001800392d8     c4_continental_test.obj
 0003:000072e4       $SG18270                   00000001800392e4     c4_continental_test.obj
 0003:000072f0       $SG18254                   00000001800392f0     c4_continental_test.obj
 0003:00007338       $SG18256                   0000000180039338     c4_continental_test.obj
 0003:00007348       $SG18257                   0000000180039348     c4_continental_test.obj
 0003:00007358       $SG18258                   0000000180039358     c4_continental_test.obj
 0003:00007368       $SG18260                   0000000180039368     c4_continental_test.obj
 0003:00007378       $SG18261                   0000000180039378     c4_continental_test.obj
 0003:00007388       $SG18262                   0000000180039388     c4_continental_test.obj
 0003:00007398       $SG18267                   0000000180039398     c4_continental_test.obj
 0003:000073a0       $SG18268                   00000001800393a0     c4_continental_test.obj
 0003:000073a8       $SG18271                   00000001800393a8     c4_continental_test.obj
 0003:000073b0       $SG18269                   00000001800393b0     c4_continental_test.obj
 0003:00007408       $SG18272                   0000000180039408     c4_continental_test.obj
 0003:00007428       $SG18273                   0000000180039428     c4_continental_test.obj
 0003:00007438       $SG18274                   0000000180039438     c4_continental_test.obj
 0003:00007448       $SG18276                   0000000180039448     c4_continental_test.obj
 0003:00007458       $SG18277                   0000000180039458     c4_continental_test.obj
 0003:00007468       $SG18279                   0000000180039468     c4_continental_test.obj
 0003:00007478       $SG18283                   0000000180039478     c4_continental_test.obj
 0003:00007484       $SG18294                   0000000180039484     c4_continental_test.obj
 0003:00007490       $SG18278                   0000000180039490     c4_continental_test.obj
 0003:000074e0       $SG18280                   00000001800394e0     c4_continental_test.obj
 0003:000074f0       $SG18281                   00000001800394f0     c4_continental_test.obj
 0003:00007500       $SG18282                   0000000180039500     c4_continental_test.obj
 0003:00007510       $SG18284                   0000000180039510     c4_continental_test.obj
 0003:00007520       $SG18285                   0000000180039520     c4_continental_test.obj
 0003:00007530       $SG18286                   0000000180039530     c4_continental_test.obj
 0003:00007540       $SG18291                   0000000180039540     c4_continental_test.obj
 0003:00007548       $SG18292                   0000000180039548     c4_continental_test.obj
 0003:00007550       $SG18293                   0000000180039550     c4_continental_test.obj
 0003:000075c8       $SG18295                   00000001800395c8     c4_continental_test.obj
 0003:000075d0       $SG18297                   00000001800395d0     c4_continental_test.obj
 0003:000075e0       $SG18298                   00000001800395e0     c4_continental_test.obj
 0003:000075f0       $SG18299                   00000001800395f0     c4_continental_test.obj
 0003:000075f8       $SG18300                   00000001800395f8     c4_continental_test.obj
 0003:00007608       $SG18301                   0000000180039608     c4_continental_test.obj
 0003:00007618       $SG18302                   0000000180039618     c4_continental_test.obj
 0003:00007658       $SG18303                   0000000180039658     c4_continental_test.obj
 0003:00007668       $SG18304                   0000000180039668     c4_continental_test.obj
 0003:00007678       $SG18305                   0000000180039678     c4_continental_test.obj
 0003:00007688       $SG18306                   0000000180039688     c4_continental_test.obj
 0003:00007698       $SG18307                   0000000180039698     c4_continental_test.obj
 0003:000076a8       $SG18308                   00000001800396a8     c4_continental_test.obj
 0003:000076b8       $SG18309                   00000001800396b8     c4_continental_test.obj
 0003:000076c8       $SG18310                   00000001800396c8     c4_continental_test.obj
 0003:000076d8       $SG18315                   00000001800396d8     c4_continental_test.obj
 0003:000076e0       $SG18316                   00000001800396e0     c4_continental_test.obj
 0003:000076e8       $SG18317                   00000001800396e8     c4_continental_test.obj
 0003:00007724       $SG18318                   0000000180039724     c4_continental_test.obj
 0003:0000772c       $SG18319                   000000018003972c     c4_continental_test.obj
 0003:00007738       $SG18320                   0000000180039738     c4_continental_test.obj
 0003:00007750       $SG18321                   0000000180039750     c4_continental_test.obj
 0003:00007760       $SG18322                   0000000180039760     c4_continental_test.obj
 0003:00007770       $SG18324                   0000000180039770     c4_continental_test.obj
 0003:00007780       $SG18325                   0000000180039780     c4_continental_test.obj
 0003:00007790       $SG18326                   0000000180039790     c4_continental_test.obj
 0003:000077d8       $SG18327                   00000001800397d8     c4_continental_test.obj
 0003:000077e8       $SG18328                   00000001800397e8     c4_continental_test.obj
 0003:000077f8       $SG18329                   00000001800397f8     c4_continental_test.obj
 0003:00007808       $SG18330                   0000000180039808     c4_continental_test.obj
 0003:00007818       $SG18331                   0000000180039818     c4_continental_test.obj
 0003:00007828       $SG17307                   0000000180039828     c4_continental_test.obj
 0003:00007830       $SG18332                   0000000180039830     c4_continental_test.obj
 0003:00007840       $SG17308                   0000000180039840     c4_continental_test.obj
 0003:00007848       $SG18333                   0000000180039848     c4_continental_test.obj
 0003:00007858       $SG18334                   0000000180039858     c4_continental_test.obj
 0003:00007864       $SG17310                   0000000180039864     c4_continental_test.obj
 0003:0000786c       $SG17311                   000000018003986c     c4_continental_test.obj
 0003:00007878       $SG17312                   0000000180039878     c4_continental_test.obj
 0003:00007888       $SG17313                   0000000180039888     c4_continental_test.obj
 0003:00007898       $SG17314                   0000000180039898     c4_continental_test.obj
 0003:000078a8       $SG18339                   00000001800398a8     c4_continental_test.obj
 0003:000078b0       $SG18340                   00000001800398b0     c4_continental_test.obj
 0003:000078b8       $SG17316                   00000001800398b8     c4_continental_test.obj
 0003:000078c8       $SG18341                   00000001800398c8     c4_continental_test.obj
 0003:00007908       $SG17317                   0000000180039908     c4_continental_test.obj
 0003:00007914       $SG18342                   0000000180039914     c4_continental_test.obj
 0003:00007920       $SG17318                   0000000180039920     c4_continental_test.obj
 0003:00007960       $SG18343                   0000000180039960     c4_continental_test.obj
 0003:00007968       $SG17319                   0000000180039968     c4_continental_test.obj
 0003:00007978       $SG18344                   0000000180039978     c4_continental_test.obj
 0003:00007998       $SG17320                   0000000180039998     c4_continental_test.obj
 0003:000079a8       $SG18345                   00000001800399a8     c4_continental_test.obj
 0003:000079b8       $SG17321                   00000001800399b8     c4_continental_test.obj
 0003:000079c8       $SG18346                   00000001800399c8     c4_continental_test.obj
 0003:000079d8       $SG17322                   00000001800399d8     c4_continental_test.obj
 0003:000079e8       $SG17323                   00000001800399e8     c4_continental_test.obj
 0003:000079f8       $SG18348                   00000001800399f8     c4_continental_test.obj
 0003:00007a08       $SG17324                   0000000180039a08     c4_continental_test.obj
 0003:00007a18       $SG18349                   0000000180039a18     c4_continental_test.obj
 0003:00007a28       $SG17325                   0000000180039a28     c4_continental_test.obj
 0003:00007a34       $SG17334                   0000000180039a34     c4_continental_test.obj
 0003:00007a40       $SG18350                   0000000180039a40     c4_continental_test.obj
 0003:00007a90       $SG17326                   0000000180039a90     c4_continental_test.obj
 0003:00007aa0       $SG18351                   0000000180039aa0     c4_continental_test.obj
 0003:00007ab0       $SG18352                   0000000180039ab0     c4_continental_test.obj
 0003:00007ac0       $SG18353                   0000000180039ac0     c4_continental_test.obj
 0003:00007ad0       $SG18354                   0000000180039ad0     c4_continental_test.obj
 0003:00007ae0       $SG18355                   0000000180039ae0     c4_continental_test.obj
 0003:00007af0       $SG17331                   0000000180039af0     c4_continental_test.obj
 0003:00007af8       $SG18356                   0000000180039af8     c4_continental_test.obj
 0003:00007b08       $SG17332                   0000000180039b08     c4_continental_test.obj
 0003:00007b10       $SG18357                   0000000180039b10     c4_continental_test.obj
 0003:00007b20       $SG17333                   0000000180039b20     c4_continental_test.obj
 0003:00007b60       $SG18358                   0000000180039b60     c4_continental_test.obj
 0003:00007b6c       $SG17335                   0000000180039b6c     c4_continental_test.obj
 0003:00007b78       $SG17336                   0000000180039b78     c4_continental_test.obj
 0003:00007b98       $SG17337                   0000000180039b98     c4_continental_test.obj
 0003:00007ba8       $SG17338                   0000000180039ba8     c4_continental_test.obj
 0003:00007bb8       $SG17340                   0000000180039bb8     c4_continental_test.obj
 0003:00007bc8       $SG17341                   0000000180039bc8     c4_continental_test.obj
 0003:00007bd8       $SG17343                   0000000180039bd8     c4_continental_test.obj
 0003:00007be8       $SG17347                   0000000180039be8     c4_continental_test.obj
 0003:00007bf4       $SG17358                   0000000180039bf4     c4_continental_test.obj
 0003:00007c00       $SG17342                   0000000180039c00     c4_continental_test.obj
 0003:00007c58       $SG17344                   0000000180039c58     c4_continental_test.obj
 0003:00007c68       $SG17345                   0000000180039c68     c4_continental_test.obj
 0003:00007c78       $SG17346                   0000000180039c78     c4_continental_test.obj
 0003:00007c88       $SG17348                   0000000180039c88     c4_continental_test.obj
 0003:00007c98       $SG17349                   0000000180039c98     c4_continental_test.obj
 0003:00007ca8       $SG17350                   0000000180039ca8     c4_continental_test.obj
 0003:00007cb8       $SG17355                   0000000180039cb8     c4_continental_test.obj
 0003:00007cc0       $SG17356                   0000000180039cc0     c4_continental_test.obj
 0003:00007cc8       $SG17357                   0000000180039cc8     c4_continental_test.obj
 0003:00007d08       $SG17359                   0000000180039d08     c4_continental_test.obj
 0003:00007d10       $SG17360                   0000000180039d10     c4_continental_test.obj
 0003:00007d20       $SG17361                   0000000180039d20     c4_continental_test.obj
 0003:00007d30       $SG17362                   0000000180039d30     c4_continental_test.obj
 0003:00007d40       $SG17364                   0000000180039d40     c4_continental_test.obj
 0003:00007d50       $SG17365                   0000000180039d50     c4_continental_test.obj
 0003:00007d60       $SG17366                   0000000180039d60     c4_continental_test.obj
 0003:00007da0       $SG17367                   0000000180039da0     c4_continental_test.obj
 0003:00007db0       $SG17368                   0000000180039db0     c4_continental_test.obj
 0003:00007dc0       $SG17369                   0000000180039dc0     c4_continental_test.obj
 0003:00007dd0       $SG17370                   0000000180039dd0     c4_continental_test.obj
 0003:00007de0       $SG17371                   0000000180039de0     c4_continental_test.obj
 0003:00007df0       $SG17372                   0000000180039df0     c4_continental_test.obj
 0003:00007e00       $SG17373                   0000000180039e00     c4_continental_test.obj
 0003:00007e10       $SG17374                   0000000180039e10     c4_continental_test.obj
 0003:00007e20       $SG17379                   0000000180039e20     c4_continental_test.obj
 0003:00007e28       $SG17380                   0000000180039e28     c4_continental_test.obj
 0003:00007e30       $SG17381                   0000000180039e30     c4_continental_test.obj
 0003:00007e70       $SG17382                   0000000180039e70     c4_continental_test.obj
 0003:00007e78       $SG17383                   0000000180039e78     c4_continental_test.obj
 0003:00007e80       $SG17384                   0000000180039e80     c4_continental_test.obj
 0003:00007e88       $SG17385                   0000000180039e88     c4_continental_test.obj
 0003:00007e98       $SG17386                   0000000180039e98     c4_continental_test.obj
 0003:00007ea8       $SG17388                   0000000180039ea8     c4_continental_test.obj
 0003:00007eb8       $SG17389                   0000000180039eb8     c4_continental_test.obj
 0003:00007ec8       $SG17390                   0000000180039ec8     c4_continental_test.obj
 0003:00007f08       $SG17391                   0000000180039f08     c4_continental_test.obj
 0003:00007f18       $SG17392                   0000000180039f18     c4_continental_test.obj
 0003:00007f28       $SG17393                   0000000180039f28     c4_continental_test.obj
 0003:00007f38       $SG17394                   0000000180039f38     c4_continental_test.obj
 0003:00007f48       $SG17395                   0000000180039f48     c4_continental_test.obj
 0003:00007f58       $SG17396                   0000000180039f58     c4_continental_test.obj
 0003:00007f68       $SG17397                   0000000180039f68     c4_continental_test.obj
 0003:00007f78       $SG17398                   0000000180039f78     c4_continental_test.obj
 0003:00007f88       $SG17403                   0000000180039f88     c4_continental_test.obj
 0003:00007f90       $SG17404                   0000000180039f90     c4_continental_test.obj
 0003:00007f98       $SG17405                   0000000180039f98     c4_continental_test.obj
 0003:00007fd4       $SG17406                   0000000180039fd4     c4_continental_test.obj
 0003:00007fdc       $SG17407                   0000000180039fdc     c4_continental_test.obj
 0003:00007ff0       $SG17408                   0000000180039ff0     c5_continental_test.obj
 0003:00007ff8       $SG17409                   0000000180039ff8     c5_continental_test.obj
 0003:00008004       $SG17411                   000000018003a004     c5_continental_test.obj
 0003:0000800c       $SG17412                   000000018003a00c     c5_continental_test.obj
 0003:00008014       $SG17413                   000000018003a014     c5_continental_test.obj
 0003:0000801c       $SG17414                   000000018003a01c     c5_continental_test.obj
 0003:00008024       $SG17426                   000000018003a024     c5_continental_test.obj
 0003:0000802c       $SG17449                   000000018003a02c     c5_continental_test.obj
 0003:00008034       $SG17489                   000000018003a034     c5_continental_test.obj
 0003:00008038       $SG17415                   000000018003a038     c5_continental_test.obj
 0003:00008044       $SG17492                   000000018003a044     c5_continental_test.obj
 0003:00008048       $SG17416                   000000018003a048     c5_continental_test.obj
 0003:00008054       $SG17422                   000000018003a054     c5_continental_test.obj
 0003:0000805c       $SG17424                   000000018003a05c     c5_continental_test.obj
 0003:00008064       $SG17425                   000000018003a064     c5_continental_test.obj
 0003:0000806c       $SG17427                   000000018003a06c     c5_continental_test.obj
 0003:00008074       $SG17429                   000000018003a074     c5_continental_test.obj
 0003:0000807c       $SG17430                   000000018003a07c     c5_continental_test.obj
 0003:00008084       $SG17431                   000000018003a084     c5_continental_test.obj
 0003:0000808c       $SG17441                   000000018003a08c     c5_continental_test.obj
 0003:00008094       $SG16642                   000000018003a094     c5_continental_test.obj
 0003:00008098       $SG17432                   000000018003a098     c5_continental_test.obj
 0003:000080a4       $SG17437                   000000018003a0a4     c5_continental_test.obj
 0003:000080ac       $SG17439                   000000018003a0ac     c5_continental_test.obj
 0003:000080b4       $SG17440                   000000018003a0b4     c5_continental_test.obj
 0003:000080bc       $SG17442                   000000018003a0bc     c5_continental_test.obj
 0003:000080c4       $SG17444                   000000018003a0c4     c5_continental_test.obj
 0003:000080cc       $SG17445                   000000018003a0cc     c5_continental_test.obj
 0003:000080d4       $SG17446                   000000018003a0d4     c5_continental_test.obj
 0003:000080dc       $SG17493                   000000018003a0dc     c5_continental_test.obj
 0003:000080e4       $SG16643                   000000018003a0e4     c5_continental_test.obj
 0003:000080e8       $SG17447                   000000018003a0e8     c5_continental_test.obj
 0003:000080f4       $SG16646                   000000018003a0f4     c5_continental_test.obj
 0003:000080f8       $SG17448                   000000018003a0f8     c5_continental_test.obj
 0003:00008100       $SG17462                   000000018003a100     c5_continental_test.obj
 0003:00008110       $SG17463                   000000018003a110     c5_continental_test.obj
 0003:00008120       $SG17464                   000000018003a120     c5_continental_test.obj
 0003:00008128       $SG17465                   000000018003a128     c5_continental_test.obj
 0003:00008130       $SG17468                   000000018003a130     c5_continental_test.obj
 0003:000081b4       $SG17490                   000000018003a1b4     c5_continental_test.obj
 0003:000081c0       $SG17469                   000000018003a1c0     c5_continental_test.obj
 0003:00008244       $SG17491                   000000018003a244     c5_continental_test.obj
 0003:0000824c       $SG16644                   000000018003a24c     c5_continental_test.obj
 0003:00008254       $SG16648                   000000018003a254     c5_continental_test.obj
 0003:00008258       $SG17499                   000000018003a258     c5_continental_test.obj
 0003:00008268       $SG17542                   000000018003a268     c5_continental_test.obj
 0003:00008280       $SG17577                   000000018003a280     c5_continental_test.obj
 0003:00008298       $SG17581                   000000018003a298     c5_continental_test.obj
 0003:000082a8       $SG17600                   000000018003a2a8     c5_continental_test.obj
 0003:000082c0       $SG17585                   000000018003a2c0     c5_continental_test.obj
 0003:00008304       $SG16859                   000000018003a304     c5_continental_test.obj
 0003:00008308       $SG17602                   000000018003a308     c5_continental_test.obj
 0003:00008318       $SG16645                   000000018003a318     c5_continental_test.obj
 0003:00008320       $SG17606                   000000018003a320     c5_continental_test.obj
 0003:00008364       $SG17671                   000000018003a364     c5_continental_test.obj
 0003:00008370       c5_debug_family_names      000000018003a370     c5_continental_test.obj
 0003:000083b8       $SG16647                   000000018003a3b8     c5_continental_test.obj
 0003:000083c0       $SG16649                   000000018003a3c0     c5_continental_test.obj
 0003:000083c8       $SG16650                   000000018003a3c8     c5_continental_test.obj
 0003:000083d0       $SG17678                   000000018003a3d0     c5_continental_test.obj
 0003:000083f4       $SG16864                   000000018003a3f4     c5_continental_test.obj
 0003:000083f8       $SG17699                   000000018003a3f8     c5_continental_test.obj
 0003:00008408       $SG17700                   000000018003a408     c5_continental_test.obj
 0003:0000841c       $SG16866                   000000018003a41c     c5_continental_test.obj
 0003:00008420       $SG17714                   000000018003a420     c5_continental_test.obj
 0003:00008450       $SG17739                   000000018003a450     c5_continental_test.obj
 0003:000084b8       $SG16881                   000000018003a4b8     c5_continental_test.obj
 0003:000084c0       $SG16885                   000000018003a4c0     c5_continental_test.obj
 0003:000084c8       $SG16889                   000000018003a4c8     c5_continental_test.obj
 0003:000084e8       $SG16982                   000000018003a4e8     c5_continental_test.obj
 0003:000084ec       $SG16983                   000000018003a4ec     c5_continental_test.obj
 0003:000084f4       $SG16984                   000000018003a4f4     c5_continental_test.obj
 0003:000084f8       $SG16985                   000000018003a4f8     c5_continental_test.obj
 0003:000084fc       $SG16993                   000000018003a4fc     c5_continental_test.obj
 0003:00008500       $SG16994                   000000018003a500     c5_continental_test.obj
 0003:00008504       $SG17002                   000000018003a504     c5_continental_test.obj
 0003:00008508       $SG17003                   000000018003a508     c5_continental_test.obj
 0003:00008510       $SG17069                   000000018003a510     c5_continental_test.obj
 0003:00008514       $SG17151                   000000018003a514     c5_continental_test.obj
 0003:00008518       $SG17219                   000000018003a518     c5_continental_test.obj
 0003:0000851c       $SG17269                   000000018003a51c     c5_continental_test.obj
 0003:00008520       $SG17253                   000000018003a520     c5_continental_test.obj
 0003:00008530       $SG17341                   000000018003a530     c5_continental_test.obj
 0003:0000853c       $SG17343                   000000018003a53c     c5_continental_test.obj
 0003:00008548       $SG17342                   000000018003a548     c5_continental_test.obj
 0003:00008554       $SG17344                   000000018003a554     c5_continental_test.obj
 0003:00008560       $SG17345                   000000018003a560     c5_continental_test.obj
 0003:00008570       $SG17346                   000000018003a570     c5_continental_test.obj
 0003:00008580       $SG17347                   000000018003a580     c5_continental_test.obj
 0003:00008588       $SG17348                   000000018003a588     c5_continental_test.obj
 0003:00008590       $SG17349                   000000018003a590     c5_continental_test.obj
 0003:00008598       $SG17350                   000000018003a598     c5_continental_test.obj
 0003:000085a0       $SG17353                   000000018003a5a0     c5_continental_test.obj
 0003:000085b8       $SG17354                   000000018003a5b8     c5_continental_test.obj
 0003:000085c4       $SG17356                   000000018003a5c4     c5_continental_test.obj
 0003:000085cc       $SG17357                   000000018003a5cc     c5_continental_test.obj
 0003:000085d4       $SG17358                   000000018003a5d4     c5_continental_test.obj
 0003:000085dc       $SG17359                   000000018003a5dc     c5_continental_test.obj
 0003:000085e8       $SG17360                   000000018003a5e8     c5_continental_test.obj
 0003:000085f8       $SG17361                   000000018003a5f8     c5_continental_test.obj
 0003:00008604       $SG17367                   000000018003a604     c5_continental_test.obj
 0003:0000860c       $SG17369                   000000018003a60c     c5_continental_test.obj
 0003:00008614       $SG17370                   000000018003a614     c5_continental_test.obj
 0003:0000861c       $SG17371                   000000018003a61c     c5_continental_test.obj
 0003:00008624       $SG17372                   000000018003a624     c5_continental_test.obj
 0003:0000862c       $SG17374                   000000018003a62c     c5_continental_test.obj
 0003:00008634       $SG17375                   000000018003a634     c5_continental_test.obj
 0003:0000863c       $SG17376                   000000018003a63c     c5_continental_test.obj
 0003:00008648       $SG17377                   000000018003a648     c5_continental_test.obj
 0003:00008654       $SG17382                   000000018003a654     c5_continental_test.obj
 0003:0000865c       $SG17384                   000000018003a65c     c5_continental_test.obj
 0003:00008664       $SG17385                   000000018003a664     c5_continental_test.obj
 0003:0000866c       $SG17386                   000000018003a66c     c5_continental_test.obj
 0003:00008674       $SG17387                   000000018003a674     c5_continental_test.obj
 0003:0000867c       $SG17389                   000000018003a67c     c5_continental_test.obj
 0003:00008684       $SG17390                   000000018003a684     c5_continental_test.obj
 0003:0000868c       $SG17391                   000000018003a68c     c5_continental_test.obj
 0003:00008698       $SG17392                   000000018003a698     c5_continental_test.obj
 0003:000086a4       $SG17397                   000000018003a6a4     c5_continental_test.obj
 0003:000086ac       $SG17399                   000000018003a6ac     c5_continental_test.obj
 0003:000086b4       $SG17400                   000000018003a6b4     c5_continental_test.obj
 0003:000086bc       $SG17401                   000000018003a6bc     c5_continental_test.obj
 0003:000086c4       $SG17402                   000000018003a6c4     c5_continental_test.obj
 0003:000086cc       $SG17404                   000000018003a6cc     c5_continental_test.obj
 0003:000086d4       $SG17405                   000000018003a6d4     c5_continental_test.obj
 0003:000086dc       $SG17406                   000000018003a6dc     c5_continental_test.obj
 0003:000086e8       $SG17407                   000000018003a6e8     c5_continental_test.obj
 0003:00008700       $SG14365                   000000018003a700     continental_test_sfun_registry.obj
 0003:00008718       $SG14396                   000000018003a718     continental_test_sfun_registry.obj
 0003:0000872c       $SG14489                   000000018003a72c     continental_test_sfun_registry.obj
 0003:00008734       $SG15932                   000000018003a734     continental_test_sfun_registry.obj
 0003:00008738       $SG14490                   000000018003a738     continental_test_sfun_registry.obj
 0003:0000874c       $SG14495                   000000018003a74c     continental_test_sfun_registry.obj
 0003:00008754       $SG16005                   000000018003a754     continental_test_sfun_registry.obj
 0003:00008758       $SG14496                   000000018003a758     continental_test_sfun_registry.obj
 0003:00008774       $SG14818                   000000018003a774     continental_test_sfun_registry.obj
 0003:00008780       $SG15583                   000000018003a780     continental_test_sfun_registry.obj
 0003:000087c0       $SG15591                   000000018003a7c0     continental_test_sfun_registry.obj
 0003:000087f8       $SG15605                   000000018003a7f8     continental_test_sfun_registry.obj
 0003:00008810       $SG14623                   000000018003a810     continental_test_sfun_registry.obj
 0003:00008840       _sfcnName                  000000018003a840     continental_test_sfun_registry.obj
 0003:00008860       $SG14640                   000000018003a860     continental_test_sfun_registry.obj
 0003:000088d8       $SG14770                   000000018003a8d8     continental_test_sfun_registry.obj
 0003:000088e0       $SG14771                   000000018003a8e0     continental_test_sfun_registry.obj
 0003:000088e8       $SG14792                   000000018003a8e8     continental_test_sfun_registry.obj
 0003:000088f8       $SG14816                   000000018003a8f8     continental_test_sfun_registry.obj
 0003:00008908       $SG14821                   000000018003a908     continental_test_sfun_registry.obj
 0003:00008918       $SG15929                   000000018003a918     continental_test_sfun_registry.obj
 0003:00008958       $SG15951                   000000018003a958     continental_test_sfun_registry.obj
 0003:00008960       $SG15952                   000000018003a960     continental_test_sfun_registry.obj
 0003:00008968       $SG15953                   000000018003a968     continental_test_sfun_registry.obj
 0003:00008970       $SG15954                   000000018003a970     continental_test_sfun_registry.obj
 0003:000089d8       $SG15957                   000000018003a9d8     continental_test_sfun_registry.obj
 0003:00008a18       $SG15959                   000000018003aa18     continental_test_sfun_registry.obj
 0003:00008a20       $SG15962                   000000018003aa20     continental_test_sfun_registry.obj
 0003:00008a28       $SG15965                   000000018003aa28     continental_test_sfun_registry.obj
 0003:00008a30       $SG15967                   000000018003aa30     continental_test_sfun_registry.obj
 0003:00008a60       $SG15969                   000000018003aa60     continental_test_sfun_registry.obj
 0003:00008a70       $SG15997                   000000018003aa70     continental_test_sfun_registry.obj
 0003:00008a7c       $SG15999                   000000018003aa7c     continental_test_sfun_registry.obj
 0003:00008a84       $SG16001                   000000018003aa84     continental_test_sfun_registry.obj
 0003:00008a90       $SG16003                   000000018003aa90     continental_test_sfun_registry.obj
 0003:00008aa0       $SG16011                   000000018003aaa0     continental_test_sfun_registry.obj
 0003:00008b48       $SG16030                   000000018003ab48     continental_test_sfun_registry.obj
 0003:00008b80       $SG16033                   000000018003ab80     continental_test_sfun_registry.obj
 0003:00008bb0       $SG16037                   000000018003abb0     continental_test_sfun_registry.obj
 0003:00008bf8       $SG16066                   000000018003abf8     continental_test_sfun_registry.obj
 0003:00008c00       $SG16043                   000000018003ac00     continental_test_sfun_registry.obj
 0003:00008c48       $SG16046                   000000018003ac48     continental_test_sfun_registry.obj
 0003:00008c68       $SG16068                   000000018003ac68     continental_test_sfun_registry.obj
 0003:00008c80       $SG16070                   000000018003ac80     continental_test_sfun_registry.obj
 0003:00008d20       $SG15069                   000000018003ad20     continental_test_sfun_registry.obj
 0003:00008d90       $SG15079                   000000018003ad90     continental_test_sfun_registry.obj
 0003:00008e00       $SG16143                   000000018003ae00     continental_test_sfun_registry.obj
 0003:00008e30       $SG16151                   000000018003ae30     continental_test_sfun_registry.obj
 0003:00008e58       $SG16159                   000000018003ae58     continental_test_sfun_registry.obj
 0003:00008e88       $SG16168                   000000018003ae88     continental_test_sfun_registry.obj
 0003:00008eb8       $SG16177                   000000018003aeb8     continental_test_sfun_registry.obj
 0003:00008ef0       $SG16182                   000000018003aef0     continental_test_sfun_registry.obj
 0003:00008f28       $SG16190                   000000018003af28     continental_test_sfun_registry.obj
 0003:00008f58       $SG16198                   000000018003af58     continental_test_sfun_registry.obj
 0003:00008f88       $SG16205                   000000018003af88     continental_test_sfun_registry.obj
 0003:00008fb8       $SG16212                   000000018003afb8     continental_test_sfun_registry.obj
 0003:00008fe8       $SG16217                   000000018003afe8     continental_test_sfun_registry.obj
 0003:00009018       $SG16225                   000000018003b018     continental_test_sfun_registry.obj
 0003:00009048       $SG14183                   000000018003b048     continental_test_sfun_registry.obj
 0003:00009068       $SG16233                   000000018003b068     continental_test_sfun_registry.obj
 0003:000090a0       $SG14188                   000000018003b0a0     continental_test_sfun_registry.obj
 0003:000090b8       $SG16238                   000000018003b0b8     continental_test_sfun_registry.obj
 0003:000090f0       $SG16246                   000000018003b0f0     continental_test_sfun_registry.obj
 0003:00009120       $SG16252                   000000018003b120     continental_test_sfun_registry.obj
 0003:00009148       $SG16257                   000000018003b148     continental_test_sfun_registry.obj
 0003:00009168       $SG16262                   000000018003b168     continental_test_sfun_registry.obj
 0003:00009198       $SG16267                   000000018003b198     continental_test_sfun_registry.obj
 0003:000091b8       $SG14221                   000000018003b1b8     continental_test_sfun_registry.obj
 0003:000091d8       $SG16272                   000000018003b1d8     continental_test_sfun_registry.obj
 0003:000091f8       $SG14226                   000000018003b1f8     continental_test_sfun_registry.obj
 0003:00009210       $SG16277                   000000018003b210     continental_test_sfun_registry.obj
 0003:00009230       $SG16282                   000000018003b230     continental_test_sfun_registry.obj
 0003:00009258       $SG16287                   000000018003b258     continental_test_sfun_registry.obj
 0003:00009280       $SG16292                   000000018003b280     continental_test_sfun_registry.obj
 0003:000092a8       $SG16301                   000000018003b2a8     continental_test_sfun_registry.obj
 0003:000092d0       $SG16305                   000000018003b2d0     continental_test_sfun_registry.obj
 0003:000092f8       $SG14259                   000000018003b2f8     continental_test_sfun_registry.obj
 0003:00009318       $SG15287                   000000018003b318     continental_test_sfun_registry.obj
 0003:00009358       $SG14264                   000000018003b358     continental_test_sfun_registry.obj
 0003:00009370       $SG16313                   000000018003b370     continental_test_sfun_registry.obj
 0003:00009398       $SG15292                   000000018003b398     continental_test_sfun_registry.obj
 0003:000093c8       $SG16320                   000000018003b3c8     continental_test_sfun_registry.obj
 0003:000093f0       $SG15297                   000000018003b3f0     continental_test_sfun_registry.obj
 0003:00009438       $SG15311                   000000018003b438     continental_test_sfun_registry.obj
 0003:00009470       $SG14297                   000000018003b470     continental_test_sfun_registry.obj
 0003:00009490       $SG14302                   000000018003b490     continental_test_sfun_registry.obj
 0003:000094a8       $SG14323                   000000018003b4a8     continental_test_sfun_registry.obj
 0003:000094e0       sRtwOptimizationInfoStruct 000000018003b4e0     continental_test_sfun.obj
 0003:000094e8       _sfTime_                   000000018003b4e8     c1_continental_test.obj
 0003:000094f0       $SG17500                   000000018003b4f0     c2_continental_test.obj
 0003:000094f1       $SG17812                   000000018003b4f1     c2_continental_test.obj
 0003:000094f8       _sfTime_                   000000018003b4f8     c2_continental_test.obj
 0003:00009500       _sfTime_                   000000018003b500     c3_continental_test.obj
 0003:00009508       $SG18432                   000000018003b508     c4_continental_test.obj
 0003:00009509       $SG18441                   000000018003b509     c4_continental_test.obj
 0003:0000950a       $SG18442                   000000018003b50a     c4_continental_test.obj
 0003:0000950b       $SG17579                   000000018003b50b     c4_continental_test.obj
 0003:0000950c       $SG17603                   000000018003b50c     c4_continental_test.obj
 0003:0000950d       $SG18632                   000000018003b50d     c4_continental_test.obj
 0003:0000950e       $SG18633                   000000018003b50e     c4_continental_test.obj
 0003:0000950f       $SG18634                   000000018003b50f     c4_continental_test.obj
 0003:00009510       $SG18635                   000000018003b510     c4_continental_test.obj
 0003:00009511       $SG18636                   000000018003b511     c4_continental_test.obj
 0003:00009512       $SG18637                   000000018003b512     c4_continental_test.obj
 0003:00009513       $SG18638                   000000018003b513     c4_continental_test.obj
 0003:00009514       $SG18639                   000000018003b514     c4_continental_test.obj
 0003:00009515       $SG18667                   000000018003b515     c4_continental_test.obj
 0003:00009516       $SG18668                   000000018003b516     c4_continental_test.obj
 0003:00009517       $SG18669                   000000018003b517     c4_continental_test.obj
 0003:00009518       $SG18670                   000000018003b518     c4_continental_test.obj
 0003:00009519       $SG18671                   000000018003b519     c4_continental_test.obj
 0003:0000951a       $SG18672                   000000018003b51a     c4_continental_test.obj
 0003:0000951b       $SG18684                   000000018003b51b     c4_continental_test.obj
 0003:0000951c       $SG18685                   000000018003b51c     c4_continental_test.obj
 0003:0000951d       $SG18694                   000000018003b51d     c4_continental_test.obj
 0003:0000951e       $SG18695                   000000018003b51e     c4_continental_test.obj
 0003:0000951f       $SG17675                   000000018003b51f     c4_continental_test.obj
 0003:00009520       $SG17723                   000000018003b520     c4_continental_test.obj
 0003:00009521       $SG17819                   000000018003b521     c4_continental_test.obj
 0003:00009522       $SG17843                   000000018003b522     c4_continental_test.obj
 0003:00009523       $SG17963                   000000018003b523     c4_continental_test.obj
 0003:00009524       $SG18203                   000000018003b524     c4_continental_test.obj
 0003:00009525       $SG18275                   000000018003b525     c4_continental_test.obj
 0003:00009526       $SG18323                   000000018003b526     c4_continental_test.obj
 0003:00009527       $SG17309                   000000018003b527     c4_continental_test.obj
 0003:00009528       $SG18347                   000000018003b528     c4_continental_test.obj
 0003:00009529       $SG17363                   000000018003b529     c4_continental_test.obj
 0003:0000952a       $SG18431                   000000018003b52a     c4_continental_test.obj
 0003:00009530       _sfTime_                   000000018003b530     c4_continental_test.obj
 0003:00009538       _sfTime_                   000000018003b538     c5_continental_test.obj
 0003:00009540       sfGlobalMdlStartCallCounts 000000018003b540     continental_test_sfun_registry.obj
 0003:00009544       $SG15946                   000000018003b544     continental_test_sfun_registry.obj
 0003:00009550       ?errmsg@?N@??ssWriteRTWWorkVect@@9@9 000000018003b550     continental_test_sfun_registry.obj
 0003:00009620       GS_ExceptionRecord         000000018003b620     MSVCRT:gs_report.obj
 0003:000096c0       GS_ContextRecord           000000018003b6c0     MSVCRT:gs_report.obj
 0003:00009b90       DebuggerWasPresent         000000018003bb90     MSVCRT:gs_report.obj
 0003:00009b94       __proc_attached            000000018003bb94     MSVCRT:crtdll.obj
 0004:00000000       $pdata$load_continental_test_optimization_info 000000018003c000     continental_test_sfun.obj
 0004:0000000c       $pdata$unload_continental_test_optimization_info 000000018003c00c     continental_test_sfun.obj
 0004:00000018       $pdata$sf_continental_test_method_dispatcher 000000018003c018     continental_test_sfun.obj
 0004:00000024       $pdata$sf_continental_test_process_check_sum_call 000000018003c024     continental_test_sfun.obj
 0004:00000030       $pdata$sf_continental_test_autoinheritance_info 000000018003c030     continental_test_sfun.obj
 0004:0000003c       $pdata$sf_continental_test_get_eml_resolved_functions_info 000000018003c03c     continental_test_sfun.obj
 0004:00000048       $pdata$sf_continental_test_third_party_uses_info 000000018003c048     continental_test_sfun.obj
 0004:00000054       $pdata$sf_continental_test_updateBuildInfo_args_info 000000018003c054     continental_test_sfun.obj
 0004:00000060       $pdata$continental_test_debug_initialize 000000018003c060     continental_test_sfun.obj
 0004:0000006c       $pdata$sf_c1_continental_test_get_eml_resolved_functions_info 000000018003c06c     c1_continental_test.obj
 0004:00000078       $pdata$sf_c1_continental_test_get_check_sum 000000018003c078     c1_continental_test.obj
 0004:00000084       $pdata$c1_continental_test_method_dispatcher 000000018003c084     c1_continental_test.obj
 0004:00000090       $pdata$initialize_c1_continental_test 000000018003c090     c1_continental_test.obj
 0004:0000009c       $pdata$enable_c1_continental_test 000000018003c09c     c1_continental_test.obj
 0004:000000a8       $pdata$disable_c1_continental_test 000000018003c0a8     c1_continental_test.obj
 0004:000000b4       $pdata$get_sim_state_c1_continental_test 000000018003c0b4     c1_continental_test.obj
 0004:000000c0       $pdata$set_sim_state_c1_continental_test 000000018003c0c0     c1_continental_test.obj
 0004:000000cc       $pdata$sf_gateway_c1_continental_test 000000018003c0cc     c1_continental_test.obj
 0004:000000d8       $pdata$c1_sf_marshallOut   000000018003c0d8     c1_continental_test.obj
 0004:000000e4       $pdata$c1_emlrt_marshallIn 000000018003c0e4     c1_continental_test.obj
 0004:000000f0       $pdata$c1_b_emlrt_marshallIn 000000018003c0f0     c1_continental_test.obj
 0004:000000fc       $pdata$c1_sf_marshallIn    000000018003c0fc     c1_continental_test.obj
 0004:00000108       $pdata$c1_b_sf_marshallOut 000000018003c108     c1_continental_test.obj
 0004:00000114       $pdata$c1_c_sf_marshallOut 000000018003c114     c1_continental_test.obj
 0004:00000120       $pdata$c1_c_emlrt_marshallIn 000000018003c120     c1_continental_test.obj
 0004:0000012c       $pdata$c1_b_sf_marshallIn  000000018003c12c     c1_continental_test.obj
 0004:00000138       $pdata$c1_e_emlrt_marshallIn 000000018003c138     c1_continental_test.obj
 0004:00000144       $pdata$c1_f_emlrt_marshallIn 000000018003c144     c1_continental_test.obj
 0004:00000150       $pdata$sf_c1_continental_test_get_autoinheritance_info 000000018003c150     c1_continental_test.obj
 0004:0000015c       $pdata$sf_c1_continental_test_third_party_uses_info 000000018003c15c     c1_continental_test.obj
 0004:00000168       $pdata$sf_c1_continental_test_updateBuildInfo_args_info 000000018003c168     c1_continental_test.obj
 0004:00000174       $pdata$sf_get_sim_state_info_c1_continental_test 000000018003c174     c1_continental_test.obj
 0004:00000180       $pdata$chart_debug_initialization 000000018003c180     c1_continental_test.obj
 0004:0000018c       $pdata$sf_opaque_initialize_c1_continental_test 000000018003c18c     c1_continental_test.obj
 0004:00000198       $pdata$sf_opaque_enable_c1_continental_test 000000018003c198     c1_continental_test.obj
 0004:000001a4       $pdata$sf_opaque_disable_c1_continental_test 000000018003c1a4     c1_continental_test.obj
 0004:000001b0       $pdata$sf_opaque_gateway_c1_continental_test 000000018003c1b0     c1_continental_test.obj
 0004:000001bc       $pdata$sf_internal_get_sim_state_c1_continental_test 000000018003c1bc     c1_continental_test.obj
 0004:000001c8       $pdata$sf_internal_set_sim_state_c1_continental_test 000000018003c1c8     c1_continental_test.obj
 0004:000001d4       $pdata$sf_opaque_get_sim_state_c1_continental_test 000000018003c1d4     c1_continental_test.obj
 0004:000001e0       $pdata$sf_opaque_set_sim_state_c1_continental_test 000000018003c1e0     c1_continental_test.obj
 0004:000001ec       $pdata$sf_opaque_terminate_c1_continental_test 000000018003c1ec     c1_continental_test.obj
 0004:000001f8       $pdata$sf_opaque_init_subchart_simstructs 000000018003c1f8     c1_continental_test.obj
 0004:00000204       $pdata$mdlProcessParameters_c1_continental_test 000000018003c204     c1_continental_test.obj
 0004:00000210       $pdata$mdlSetWorkWidths_c1_continental_test 000000018003c210     c1_continental_test.obj
 0004:0000021c       $pdata$mdlRTW_c1_continental_test 000000018003c21c     c1_continental_test.obj
 0004:00000228       $pdata$mdlStart_c1_continental_test 000000018003c228     c1_continental_test.obj
 0004:00000234       $pdata$sf_c2_continental_test_get_eml_resolved_functions_info 000000018003c234     c2_continental_test.obj
 0004:00000240       $pdata$sf_c2_continental_test_get_check_sum 000000018003c240     c2_continental_test.obj
 0004:0000024c       $pdata$c2_continental_test_method_dispatcher 000000018003c24c     c2_continental_test.obj
 0004:00000258       $pdata$initialize_c2_continental_test 000000018003c258     c2_continental_test.obj
 0004:00000264       $pdata$enable_c2_continental_test 000000018003c264     c2_continental_test.obj
 0004:00000270       $pdata$disable_c2_continental_test 000000018003c270     c2_continental_test.obj
 0004:0000027c       $pdata$get_sim_state_c2_continental_test 000000018003c27c     c2_continental_test.obj
 0004:00000288       $pdata$set_sim_state_c2_continental_test 000000018003c288     c2_continental_test.obj
 0004:00000294       $pdata$sf_gateway_c2_continental_test 000000018003c294     c2_continental_test.obj
 0004:000002a0       $pdata$c2_chartstep_c2_continental_test 000000018003c2a0     c2_continental_test.obj
 0004:000002ac       $pdata$c2_sf_marshallOut   000000018003c2ac     c2_continental_test.obj
 0004:000002b8       $pdata$c2_emlrt_marshallIn 000000018003c2b8     c2_continental_test.obj
 0004:000002c4       $pdata$c2_b_emlrt_marshallIn 000000018003c2c4     c2_continental_test.obj
 0004:000002d0       $pdata$c2_sf_marshallIn    000000018003c2d0     c2_continental_test.obj
 0004:000002dc       $pdata$c2_b_sf_marshallOut 000000018003c2dc     c2_continental_test.obj
 0004:000002e8       $pdata$c2_c_emlrt_marshallIn 000000018003c2e8     c2_continental_test.obj
 0004:000002f4       $pdata$c2_b_sf_marshallIn  000000018003c2f4     c2_continental_test.obj
 0004:00000300       $pdata$c2_info_helper      000000018003c300     c2_continental_test.obj
 0004:0000030c       $pdata$c2_emlrt_marshallOut 000000018003c30c     c2_continental_test.obj
 0004:00000318       $pdata$c2_b_emlrt_marshallOut 000000018003c318     c2_continental_test.obj
 0004:00000324       $pdata$c2_mpower           000000018003c324     c2_continental_test.obj
 0004:00000330       $pdata$c2_e_emlrt_marshallIn 000000018003c330     c2_continental_test.obj
 0004:0000033c       $pdata$c2_f_emlrt_marshallIn 000000018003c33c     c2_continental_test.obj
 0004:00000348       $pdata$sf_c2_continental_test_get_autoinheritance_info 000000018003c348     c2_continental_test.obj
 0004:00000354       $pdata$sf_c2_continental_test_third_party_uses_info 000000018003c354     c2_continental_test.obj
 0004:00000360       $pdata$sf_c2_continental_test_updateBuildInfo_args_info 000000018003c360     c2_continental_test.obj
 0004:0000036c       $pdata$sf_get_sim_state_info_c2_continental_test 000000018003c36c     c2_continental_test.obj
 0004:00000378       $pdata$chart_debug_initialization 000000018003c378     c2_continental_test.obj
 0004:00000384       $pdata$sf_opaque_initialize_c2_continental_test 000000018003c384     c2_continental_test.obj
 0004:00000390       $pdata$sf_opaque_enable_c2_continental_test 000000018003c390     c2_continental_test.obj
 0004:0000039c       $pdata$sf_opaque_disable_c2_continental_test 000000018003c39c     c2_continental_test.obj
 0004:000003a8       $pdata$sf_opaque_gateway_c2_continental_test 000000018003c3a8     c2_continental_test.obj
 0004:000003b4       $pdata$sf_internal_get_sim_state_c2_continental_test 000000018003c3b4     c2_continental_test.obj
 0004:000003c0       $pdata$sf_internal_set_sim_state_c2_continental_test 000000018003c3c0     c2_continental_test.obj
 0004:000003cc       $pdata$sf_opaque_get_sim_state_c2_continental_test 000000018003c3cc     c2_continental_test.obj
 0004:000003d8       $pdata$sf_opaque_set_sim_state_c2_continental_test 000000018003c3d8     c2_continental_test.obj
 0004:000003e4       $pdata$sf_opaque_terminate_c2_continental_test 000000018003c3e4     c2_continental_test.obj
 0004:000003f0       $pdata$sf_opaque_init_subchart_simstructs 000000018003c3f0     c2_continental_test.obj
 0004:000003fc       $pdata$mdlProcessParameters_c2_continental_test 000000018003c3fc     c2_continental_test.obj
 0004:00000408       $pdata$mdlSetWorkWidths_c2_continental_test 000000018003c408     c2_continental_test.obj
 0004:00000414       $pdata$mdlRTW_c2_continental_test 000000018003c414     c2_continental_test.obj
 0004:00000420       $pdata$mdlStart_c2_continental_test 000000018003c420     c2_continental_test.obj
 0004:0000042c       $pdata$sf_c3_continental_test_get_eml_resolved_functions_info 000000018003c42c     c3_continental_test.obj
 0004:00000438       $pdata$sf_c3_continental_test_get_check_sum 000000018003c438     c3_continental_test.obj
 0004:00000444       $pdata$c3_continental_test_method_dispatcher 000000018003c444     c3_continental_test.obj
 0004:00000450       $pdata$initialize_c3_continental_test 000000018003c450     c3_continental_test.obj
 0004:0000045c       $pdata$enable_c3_continental_test 000000018003c45c     c3_continental_test.obj
 0004:00000468       $pdata$disable_c3_continental_test 000000018003c468     c3_continental_test.obj
 0004:00000474       $pdata$get_sim_state_c3_continental_test 000000018003c474     c3_continental_test.obj
 0004:00000480       $pdata$set_sim_state_c3_continental_test 000000018003c480     c3_continental_test.obj
 0004:0000048c       $pdata$sf_gateway_c3_continental_test 000000018003c48c     c3_continental_test.obj
 0004:00000498       $pdata$c3_sf_marshallOut   000000018003c498     c3_continental_test.obj
 0004:000004a4       $pdata$c3_emlrt_marshallIn 000000018003c4a4     c3_continental_test.obj
 0004:000004b0       $pdata$c3_b_emlrt_marshallIn 000000018003c4b0     c3_continental_test.obj
 0004:000004bc       $pdata$c3_sf_marshallIn    000000018003c4bc     c3_continental_test.obj
 0004:000004c8       $pdata$c3_b_sf_marshallOut 000000018003c4c8     c3_continental_test.obj
 0004:000004d4       $pdata$c3_c_emlrt_marshallIn 000000018003c4d4     c3_continental_test.obj
 0004:000004e0       $pdata$c3_b_sf_marshallIn  000000018003c4e0     c3_continental_test.obj
 0004:000004ec       $pdata$c3_c_sf_marshallOut 000000018003c4ec     c3_continental_test.obj
 0004:000004f8       $pdata$c3_d_emlrt_marshallIn 000000018003c4f8     c3_continental_test.obj
 0004:00000504       $pdata$c3_c_sf_marshallIn  000000018003c504     c3_continental_test.obj
 0004:00000510       $pdata$c3_d_sf_marshallOut 000000018003c510     c3_continental_test.obj
 0004:0000051c       $pdata$c3_e_sf_marshallOut 000000018003c51c     c3_continental_test.obj
 0004:00000528       $pdata$c3_e_emlrt_marshallIn 000000018003c528     c3_continental_test.obj
 0004:00000534       $pdata$c3_d_sf_marshallIn  000000018003c534     c3_continental_test.obj
 0004:00000540       $pdata$c3_g_emlrt_marshallIn 000000018003c540     c3_continental_test.obj
 0004:0000054c       $pdata$c3_h_emlrt_marshallIn 000000018003c54c     c3_continental_test.obj
 0004:00000558       $pdata$sf_c3_continental_test_get_autoinheritance_info 000000018003c558     c3_continental_test.obj
 0004:00000564       $pdata$sf_c3_continental_test_third_party_uses_info 000000018003c564     c3_continental_test.obj
 0004:00000570       $pdata$sf_c3_continental_test_updateBuildInfo_args_info 000000018003c570     c3_continental_test.obj
 0004:0000057c       $pdata$sf_get_sim_state_info_c3_continental_test 000000018003c57c     c3_continental_test.obj
 0004:00000588       $pdata$chart_debug_initialization 000000018003c588     c3_continental_test.obj
 0004:00000594       $pdata$sf_opaque_initialize_c3_continental_test 000000018003c594     c3_continental_test.obj
 0004:000005a0       $pdata$sf_opaque_enable_c3_continental_test 000000018003c5a0     c3_continental_test.obj
 0004:000005ac       $pdata$sf_opaque_disable_c3_continental_test 000000018003c5ac     c3_continental_test.obj
 0004:000005b8       $pdata$sf_opaque_gateway_c3_continental_test 000000018003c5b8     c3_continental_test.obj
 0004:000005c4       $pdata$sf_internal_get_sim_state_c3_continental_test 000000018003c5c4     c3_continental_test.obj
 0004:000005d0       $pdata$sf_internal_set_sim_state_c3_continental_test 000000018003c5d0     c3_continental_test.obj
 0004:000005dc       $pdata$sf_opaque_get_sim_state_c3_continental_test 000000018003c5dc     c3_continental_test.obj
 0004:000005e8       $pdata$sf_opaque_set_sim_state_c3_continental_test 000000018003c5e8     c3_continental_test.obj
 0004:000005f4       $pdata$sf_opaque_terminate_c3_continental_test 000000018003c5f4     c3_continental_test.obj
 0004:00000600       $pdata$sf_opaque_init_subchart_simstructs 000000018003c600     c3_continental_test.obj
 0004:0000060c       $pdata$mdlProcessParameters_c3_continental_test 000000018003c60c     c3_continental_test.obj
 0004:00000618       $pdata$mdlSetWorkWidths_c3_continental_test 000000018003c618     c3_continental_test.obj
 0004:00000624       $pdata$mdlRTW_c3_continental_test 000000018003c624     c3_continental_test.obj
 0004:00000630       $pdata$mdlStart_c3_continental_test 000000018003c630     c3_continental_test.obj
 0004:0000063c       $pdata$sf_c4_continental_test_get_eml_resolved_functions_info 000000018003c63c     c4_continental_test.obj
 0004:00000648       $pdata$sf_c4_continental_test_get_check_sum 000000018003c648     c4_continental_test.obj
 0004:00000654       $pdata$c4_continental_test_method_dispatcher 000000018003c654     c4_continental_test.obj
 0004:00000660       $pdata$initialize_c4_continental_test 000000018003c660     c4_continental_test.obj
 0004:0000066c       $pdata$enable_c4_continental_test 000000018003c66c     c4_continental_test.obj
 0004:00000678       $pdata$disable_c4_continental_test 000000018003c678     c4_continental_test.obj
 0004:00000684       $pdata$get_sim_state_c4_continental_test 000000018003c684     c4_continental_test.obj
 0004:00000690       $pdata$set_sim_state_c4_continental_test 000000018003c690     c4_continental_test.obj
 0004:0000069c       $pdata$sf_gateway_c4_continental_test 000000018003c69c     c4_continental_test.obj
 0004:000006a8       $pdata$c4_sf_marshallOut   000000018003c6a8     c4_continental_test.obj
 0004:000006b4       $pdata$c4_emlrt_marshallIn 000000018003c6b4     c4_continental_test.obj
 0004:000006c0       $pdata$c4_b_emlrt_marshallIn 000000018003c6c0     c4_continental_test.obj
 0004:000006cc       $pdata$c4_sf_marshallIn    000000018003c6cc     c4_continental_test.obj
 0004:000006d8       $pdata$c4_b_sf_marshallOut 000000018003c6d8     c4_continental_test.obj
 0004:000006e4       $pdata$c4_c_emlrt_marshallIn 000000018003c6e4     c4_continental_test.obj
 0004:000006f0       $pdata$c4_b_sf_marshallIn  000000018003c6f0     c4_continental_test.obj
 0004:000006fc       $pdata$c4_info_helper      000000018003c6fc     c4_continental_test.obj
 0004:00000708       $pdata$c4_emlrt_marshallOut 000000018003c708     c4_continental_test.obj
 0004:00000714       $pdata$c4_b_emlrt_marshallOut 000000018003c714     c4_continental_test.obj
 0004:00000720       $pdata$c4_eml_sort_le      000000018003c720     c4_continental_test.obj
 0004:0000072c       $pdata$c4_e_emlrt_marshallIn 000000018003c72c     c4_continental_test.obj
 0004:00000738       $pdata$c4_f_emlrt_marshallIn 000000018003c738     c4_continental_test.obj
 0004:00000744       $pdata$c4_b_sortrows       000000018003c744     c4_continental_test.obj
 0004:00000750       $pdata$sf_c4_continental_test_get_autoinheritance_info 000000018003c750     c4_continental_test.obj
 0004:0000075c       $pdata$sf_c4_continental_test_third_party_uses_info 000000018003c75c     c4_continental_test.obj
 0004:00000768       $pdata$sf_c4_continental_test_updateBuildInfo_args_info 000000018003c768     c4_continental_test.obj
 0004:00000774       $pdata$sf_get_sim_state_info_c4_continental_test 000000018003c774     c4_continental_test.obj
 0004:00000780       $pdata$chart_debug_initialization 000000018003c780     c4_continental_test.obj
 0004:0000078c       $pdata$sf_opaque_initialize_c4_continental_test 000000018003c78c     c4_continental_test.obj
 0004:00000798       $pdata$sf_opaque_enable_c4_continental_test 000000018003c798     c4_continental_test.obj
 0004:000007a4       $pdata$sf_opaque_disable_c4_continental_test 000000018003c7a4     c4_continental_test.obj
 0004:000007b0       $pdata$sf_opaque_gateway_c4_continental_test 000000018003c7b0     c4_continental_test.obj
 0004:000007bc       $pdata$sf_internal_get_sim_state_c4_continental_test 000000018003c7bc     c4_continental_test.obj
 0004:000007c8       $pdata$sf_internal_set_sim_state_c4_continental_test 000000018003c7c8     c4_continental_test.obj
 0004:000007d4       $pdata$sf_opaque_get_sim_state_c4_continental_test 000000018003c7d4     c4_continental_test.obj
 0004:000007e0       $pdata$sf_opaque_set_sim_state_c4_continental_test 000000018003c7e0     c4_continental_test.obj
 0004:000007ec       $pdata$sf_opaque_terminate_c4_continental_test 000000018003c7ec     c4_continental_test.obj
 0004:000007f8       $pdata$sf_opaque_init_subchart_simstructs 000000018003c7f8     c4_continental_test.obj
 0004:00000804       $pdata$mdlProcessParameters_c4_continental_test 000000018003c804     c4_continental_test.obj
 0004:00000810       $pdata$mdlSetWorkWidths_c4_continental_test 000000018003c810     c4_continental_test.obj
 0004:0000081c       $pdata$mdlRTW_c4_continental_test 000000018003c81c     c4_continental_test.obj
 0004:00000828       $pdata$mdlStart_c4_continental_test 000000018003c828     c4_continental_test.obj
 0004:00000834       $pdata$sf_c5_continental_test_get_eml_resolved_functions_info 000000018003c834     c5_continental_test.obj
 0004:00000840       $pdata$sf_c5_continental_test_get_check_sum 000000018003c840     c5_continental_test.obj
 0004:0000084c       $pdata$c5_continental_test_method_dispatcher 000000018003c84c     c5_continental_test.obj
 0004:00000858       $pdata$initialize_c5_continental_test 000000018003c858     c5_continental_test.obj
 0004:00000864       $pdata$enable_c5_continental_test 000000018003c864     c5_continental_test.obj
 0004:00000870       $pdata$disable_c5_continental_test 000000018003c870     c5_continental_test.obj
 0004:0000087c       $pdata$get_sim_state_c5_continental_test 000000018003c87c     c5_continental_test.obj
 0004:00000888       $pdata$set_sim_state_c5_continental_test 000000018003c888     c5_continental_test.obj
 0004:00000894       $pdata$sf_gateway_c5_continental_test 000000018003c894     c5_continental_test.obj
 0004:000008a0       $pdata$c5_sf_marshallOut   000000018003c8a0     c5_continental_test.obj
 0004:000008ac       $pdata$c5_emlrt_marshallIn 000000018003c8ac     c5_continental_test.obj
 0004:000008b8       $pdata$c5_b_emlrt_marshallIn 000000018003c8b8     c5_continental_test.obj
 0004:000008c4       $pdata$c5_sf_marshallIn    000000018003c8c4     c5_continental_test.obj
 0004:000008d0       $pdata$c5_b_sf_marshallOut 000000018003c8d0     c5_continental_test.obj
 0004:000008dc       $pdata$c5_c_emlrt_marshallIn 000000018003c8dc     c5_continental_test.obj
 0004:000008e8       $pdata$c5_d_emlrt_marshallIn 000000018003c8e8     c5_continental_test.obj
 0004:000008f4       $pdata$c5_b_sf_marshallIn  000000018003c8f4     c5_continental_test.obj
 0004:00000900       $pdata$c5_c_sf_marshallOut 000000018003c900     c5_continental_test.obj
 0004:0000090c       $pdata$c5_e_emlrt_marshallIn 000000018003c90c     c5_continental_test.obj
 0004:00000918       $pdata$c5_c_sf_marshallIn  000000018003c918     c5_continental_test.obj
 0004:00000924       $pdata$c5_g_emlrt_marshallIn 000000018003c924     c5_continental_test.obj
 0004:00000930       $pdata$c5_h_emlrt_marshallIn 000000018003c930     c5_continental_test.obj
 0004:0000093c       $pdata$sf_c5_continental_test_get_autoinheritance_info 000000018003c93c     c5_continental_test.obj
 0004:00000948       $pdata$sf_c5_continental_test_third_party_uses_info 000000018003c948     c5_continental_test.obj
 0004:00000954       $pdata$sf_c5_continental_test_updateBuildInfo_args_info 000000018003c954     c5_continental_test.obj
 0004:00000960       $pdata$sf_get_sim_state_info_c5_continental_test 000000018003c960     c5_continental_test.obj
 0004:0000096c       $pdata$chart_debug_initialization 000000018003c96c     c5_continental_test.obj
 0004:00000978       $pdata$sf_opaque_initialize_c5_continental_test 000000018003c978     c5_continental_test.obj
 0004:00000984       $pdata$sf_opaque_enable_c5_continental_test 000000018003c984     c5_continental_test.obj
 0004:00000990       $pdata$sf_opaque_disable_c5_continental_test 000000018003c990     c5_continental_test.obj
 0004:0000099c       $pdata$sf_opaque_gateway_c5_continental_test 000000018003c99c     c5_continental_test.obj
 0004:000009a8       $pdata$sf_internal_get_sim_state_c5_continental_test 000000018003c9a8     c5_continental_test.obj
 0004:000009b4       $pdata$sf_internal_set_sim_state_c5_continental_test 000000018003c9b4     c5_continental_test.obj
 0004:000009c0       $pdata$sf_opaque_get_sim_state_c5_continental_test 000000018003c9c0     c5_continental_test.obj
 0004:000009cc       $pdata$sf_opaque_set_sim_state_c5_continental_test 000000018003c9cc     c5_continental_test.obj
 0004:000009d8       $pdata$sf_opaque_terminate_c5_continental_test 000000018003c9d8     c5_continental_test.obj
 0004:000009e4       $pdata$sf_opaque_init_subchart_simstructs 000000018003c9e4     c5_continental_test.obj
 0004:000009f0       $pdata$mdlProcessParameters_c5_continental_test 000000018003c9f0     c5_continental_test.obj
 0004:000009fc       $pdata$mdlSetWorkWidths_c5_continental_test 000000018003c9fc     c5_continental_test.obj
 0004:00000a08       $pdata$mdlRTW_c5_continental_test 000000018003ca08     c5_continental_test.obj
 0004:00000a14       $pdata$mdlStart_c5_continental_test 000000018003ca14     c5_continental_test.obj
 0004:00000a20       $pdata$mexFunction         000000018003ca20     continental_test_sfun_registry.obj
 0004:00000a2c       $pdata$_ssSetInputPortDirectFeedThroughFcn 000000018003ca2c     continental_test_sfun_registry.obj
 0004:00000a38       $pdata$_ssGetInputPortSignalPtrsFcn 000000018003ca38     continental_test_sfun_registry.obj
 0004:00000a44       $pdata$_ssGetInputPortSignalFcn 000000018003ca44     continental_test_sfun_registry.obj
 0004:00000a50       $pdata$_ssSetInputPortReusableFcn 000000018003ca50     continental_test_sfun_registry.obj
 0004:00000a5c       $pdata$_ssSetOutputPortReusableFcn 000000018003ca5c     continental_test_sfun_registry.obj
 0004:00000a68       $pdata$ssGetIsZeroCrossControlDisabled 000000018003ca68     continental_test_sfun_registry.obj
 0004:00000a74       $pdata$ssSetIsInputPortUsedForContZcSignal 000000018003ca74     continental_test_sfun_registry.obj
 0004:00000a80       $pdata$ssSetZcSignalIsZcElementDisc 000000018003ca80     continental_test_sfun_registry.obj
 0004:00000a8c       $pdata$ssSetZcSignalName   000000018003ca8c     continental_test_sfun_registry.obj
 0004:00000a98       $pdata$ssSetZcSignalWidth  000000018003ca98     continental_test_sfun_registry.obj
 0004:00000aa4       $pdata$ssSetZcSignalZcEventType 000000018003caa4     continental_test_sfun_registry.obj
 0004:00000ab0       $pdata$ssSetZcSignalType   000000018003cab0     continental_test_sfun_registry.obj
 0004:00000abc       $pdata$ssSetZcSignalZcTol  000000018003cabc     continental_test_sfun_registry.obj
 0004:00000ac8       $pdata$ssSetZcSignalNeedsEventNotification 000000018003cac8     continental_test_sfun_registry.obj
 0004:00000ad4       $pdata$ssCreateAndAddZcSignalInfo 000000018003cad4     continental_test_sfun_registry.obj
 0004:00000ae0       $pdata$ssCloneAndAddZcSignalInfo 000000018003cae0     continental_test_sfun_registry.obj
 0004:00000aec       $pdata$ssGetNumZcSignals   000000018003caec     continental_test_sfun_registry.obj
 0004:00000af8       $pdata$ssGetZcSignalVector 000000018003caf8     continental_test_sfun_registry.obj
 0004:00000b04       $pdata$ssGetZcSignalName   000000018003cb04     continental_test_sfun_registry.obj
 0004:00000b10       $pdata$ssGetZcSignalWidth  000000018003cb10     continental_test_sfun_registry.obj
 0004:00000b1c       $pdata$ssGetZcSignalZcEventType 000000018003cb1c     continental_test_sfun_registry.obj
 0004:00000b28       $pdata$ssGetZcSignalZcEvents 000000018003cb28     continental_test_sfun_registry.obj
 0004:00000b34       $pdata$ssGetZcSignalType   000000018003cb34     continental_test_sfun_registry.obj
 0004:00000b40       $pdata$ssGetZcSignalZcTol  000000018003cb40     continental_test_sfun_registry.obj
 0004:00000b4c       $pdata$ssGetZcSignalNeedsEventNotification 000000018003cb4c     continental_test_sfun_registry.obj
 0004:00000b58       $pdata$ssGetZcSignalIsZcElementDisc 000000018003cb58     continental_test_sfun_registry.obj
 0004:00000b64       $pdata$ssGetIsInputPortElementContinuous 000000018003cb64     continental_test_sfun_registry.obj
 0004:00000b70       $pdata$ssGetDTypeIdFromMxArray 000000018003cb70     continental_test_sfun_registry.obj
 0004:00000b7c       $pdata$ssWriteRTWStr       000000018003cb7c     continental_test_sfun_registry.obj
 0004:00000b88       $pdata$ssWriteRTWNameValuePair 000000018003cb88     continental_test_sfun_registry.obj
 0004:00000b94       $pdata$ssWriteRTWParamSettings 000000018003cb94     continental_test_sfun_registry.obj
 0004:00000ba0       $pdata$ssWriteRTWParameters 000000018003cba0     continental_test_sfun_registry.obj
 0004:00000bac       $pdata$ssWriteRTWWorkVect  000000018003cbac     continental_test_sfun_registry.obj
 0004:00000bb8       $pdata$ssWriteRTWMxVectParam 000000018003cbb8     continental_test_sfun_registry.obj
 0004:00000bc4       $pdata$ssWriteRTWMx2dMatParam 000000018003cbc4     continental_test_sfun_registry.obj
 0004:00000bd0       $pdata$_ssSetInputPortMatrixDimensions 000000018003cbd0     continental_test_sfun_registry.obj
 0004:00000bdc       $pdata$_ssSetOutputPortMatrixDimensions 000000018003cbdc     continental_test_sfun_registry.obj
 0004:00000be8       $pdata$_ssSetInputPortVectorDimension 000000018003cbe8     continental_test_sfun_registry.obj
 0004:00000bf4       $pdata$_ssSetOutputPortVectorDimension 000000018003cbf4     continental_test_sfun_registry.obj
 0004:00000c00       $pdata$ssIsRunTimeParamTunable 000000018003cc00     continental_test_sfun_registry.obj
 0004:00000c0c       $pdata$ssGetSFuncBlockHandle 000000018003cc0c     continental_test_sfun_registry.obj
 0004:00000c18       $pdata$_ssGetCurrentInputPortWidth 000000018003cc18     continental_test_sfun_registry.obj
 0004:00000c24       $pdata$_ssGetCurrentOutputPortWidth 000000018003cc24     continental_test_sfun_registry.obj
 0004:00000c30       $pdata$_ssGetCallSystemNumFcnCallDestinations 000000018003cc30     continental_test_sfun_registry.obj
 0004:00000c3c       $pdata$ssWarning           000000018003cc3c     continental_test_sfun_registry.obj
 0004:00000c48       $pdata$_ssGetAbsTol        000000018003cc48     continental_test_sfun_registry.obj
 0004:00000c54       $pdata$sf_process_check_sum_call 000000018003cc54     continental_test_sfun_registry.obj
 0004:00000c60       $pdata$sf_process_autoinheritance_call 000000018003cc60     continental_test_sfun_registry.obj
 0004:00000c6c       $pdata$sf_process_get_third_party_uses_info_call 000000018003cc6c     continental_test_sfun_registry.obj
 0004:00000c78       $pdata$sf_process_get_updateBuildInfo_args_info_call 000000018003cc78     continental_test_sfun_registry.obj
 0004:00000c84       $pdata$sf_process_get_eml_resolved_functions_info_call 000000018003cc84     continental_test_sfun_registry.obj
 0004:00000c90       $pdata$sf_mex_unlock_call  000000018003cc90     continental_test_sfun_registry.obj
 0004:00000c9c       $pdata$sf_debug_api_wrapper 000000018003cc9c     continental_test_sfun_registry.obj
 0004:00000ca8       $pdata$ProcessMexSfunctionCmdLineCall 000000018003cca8     continental_test_sfun_registry.obj
 0004:00000cb4       $pdata$sf_machine_global_initializer_called 000000018003ccb4     continental_test_sfun_registry.obj
 0004:00000cc0       $pdata$sf_machine_global_method_dispatcher 000000018003ccc0     continental_test_sfun_registry.obj
 0004:00000ccc       $pdata$sf_machine_global_terminator 000000018003cccc     continental_test_sfun_registry.obj
 0004:00000cd8       $pdata$sf_register_machine_exported_symbols 000000018003ccd8     continental_test_sfun_registry.obj
 0004:00000ce4       $pdata$sf_machine_global_initializer 000000018003cce4     continental_test_sfun_registry.obj
 0004:00000cf0       $pdata$getChartInfoFromSimStruct 000000018003ccf0     continental_test_sfun_registry.obj
 0004:00000cfc       $pdata$mdlGetSimState      000000018003ccfc     continental_test_sfun_registry.obj
 0004:00000d08       $pdata$mdlSetSimState      000000018003cd08     continental_test_sfun_registry.obj
 0004:00000d14       $pdata$mdlSetWorkWidths    000000018003cd14     continental_test_sfun_registry.obj
 0004:00000d20       $pdata$mdlProcessParameters 000000018003cd20     continental_test_sfun_registry.obj
 0004:00000d2c       $pdata$mdl_start_processing 000000018003cd2c     continental_test_sfun_registry.obj
 0004:00000d38       $pdata$mdl_terminate_processing 000000018003cd38     continental_test_sfun_registry.obj
 0004:00000d44       $pdata$mdlStart            000000018003cd44     continental_test_sfun_registry.obj
 0004:00000d50       $pdata$mdlTerminate        000000018003cd50     continental_test_sfun_registry.obj
 0004:00000d5c       $pdata$mdlInitializeSizes  000000018003cd5c     continental_test_sfun_registry.obj
 0004:00000d68       $pdata$mdlInitializeSampleTimes 000000018003cd68     continental_test_sfun_registry.obj
 0004:00000d74       $pdata$mdl_outputs_continuous_legacy 000000018003cd74     continental_test_sfun_registry.obj
 0004:00000d80       $pdata$mdl_outputs_processing 000000018003cd80     continental_test_sfun_registry.obj
 0004:00000d8c       $pdata$mdl_zeroCrossings_processing 000000018003cd8c     continental_test_sfun_registry.obj
 0004:00000d98       $pdata$mdlZeroCrossings    000000018003cd98     continental_test_sfun_registry.obj
 0004:00000da4       $pdata$mdl_derivatives_processing 000000018003cda4     continental_test_sfun_registry.obj
 0004:00000db0       $pdata$mdlDerivatives      000000018003cdb0     continental_test_sfun_registry.obj
 0004:00000dbc       $pdata$mdl_initialize_conditions_processing 000000018003cdbc     continental_test_sfun_registry.obj
 0004:00000dc8       $pdata$mdlInitializeConditions 000000018003cdc8     continental_test_sfun_registry.obj
 0004:00000dd4       $pdata$mdl_ext_mode_exec_processing 000000018003cdd4     continental_test_sfun_registry.obj
 0004:00000de0       $pdata$mdlExtModeExec      000000018003cde0     continental_test_sfun_registry.obj
 0004:00000dec       $pdata$mdlRTW              000000018003cdec     continental_test_sfun_registry.obj
 0004:00000df8       $pdata$mdl_enable_processing 000000018003cdf8     continental_test_sfun_registry.obj
 0004:00000e04       $pdata$mdlEnable           000000018003ce04     continental_test_sfun_registry.obj
 0004:00000e10       $pdata$mdl_disable_processing 000000018003ce10     continental_test_sfun_registry.obj
 0004:00000e1c       $pdata$mdlDisable          000000018003ce1c     continental_test_sfun_registry.obj
 0004:00000e28       $pdata$mdlOutputs          000000018003ce28     continental_test_sfun_registry.obj
 0004:00000e34       $pdata$ProcessMexSfunctionEveryCall 000000018003ce34     continental_test_sfun_registry.obj
 0004:00000e40       $pdata$_RegNumInputPortsCB 000000018003ce40     continental_test_sfun_registry.obj
 0004:00000e4c       $pdata$_RegNumOutputPortsCB 000000018003ce4c     continental_test_sfun_registry.obj
 0004:00000e58       $pdata$_CreateSimStruct    000000018003ce58     continental_test_sfun_registry.obj
 0004:00000e64       $pdata$_ssFatalError       000000018003ce64     continental_test_sfun_registry.obj
 0004:00000e70       $pdata$_ProcessMexSfunctionCmdLineCall 000000018003ce70     continental_test_sfun_registry.obj
 0004:00000e7c       $pdata$__raise_securityfailure 000000018003ce7c     MSVCRT:gs_report.obj
 0004:00000e88       $pdata$__report_gsfailure  000000018003ce88     MSVCRT:gs_report.obj
 0004:00000e94       $pdata$__report_rangecheckfailure 000000018003ce94     MSVCRT:gs_report.obj
 0004:00000ea0       $pdata$__report_securityfailure 000000018003cea0     MSVCRT:gs_report.obj
 0004:00000eac       $pdata$__report_securityfailureEx 000000018003ceac     MSVCRT:gs_report.obj
 0004:00000eb8       $pdata$__GSHandlerCheck    000000018003ceb8     MSVCRT:gshandler.obj
 0004:00000ec4       $pdata$__GSHandlerCheckCommon 000000018003cec4     MSVCRT:gshandler.obj
 0004:00000edc       $pdata$pre_c_init          000000018003cedc     MSVCRT:crtdll.obj
 0004:00000ee8       $pdata$_CRT_INIT           000000018003cee8     MSVCRT:crtdll.obj
 0004:00000ef4       $pdata$_DllMainCRTStartup  000000018003cef4     MSVCRT:crtdll.obj
 0004:00000f00       $pdata$__DllMainCRTStartup 000000018003cf00     MSVCRT:crtdll.obj
 0004:00000f0c       $pdata$_IsNonwritableInCurrentImage 000000018003cf0c     MSVCRT:pesect.obj
 0004:00000f18       $pdata$__atonexitinit      000000018003cf18     MSVCRT:atonexit.obj
 0004:00000f24       $pdata$_onexit             000000018003cf24     MSVCRT:atonexit.obj
 0004:00000f30       $pdata$atexit              000000018003cf30     MSVCRT:atonexit.obj
 0004:00000f3c       $pdata$__security_init_cookie 000000018003cf3c     MSVCRT:gs_support.obj
 0004:00000f48       $pdata$DllMain             000000018003cf48     MSVCRT:dllmain.obj
 0004:00000f54       $pdata$_RTC_Initialize     000000018003cf54     MSVCRT:initsect.obj
 0004:00000f60       $pdata$_RTC_Terminate      000000018003cf60     MSVCRT:initsect.obj
 0004:00000f6c       $pdata$__DllMainCRTStartup$filt$0 000000018003cf6c     MSVCRT:crtdll.obj
 0004:00000f78       $pdata$__DllMainCRTStartup$fin$1 000000018003cf78     MSVCRT:crtdll.obj
 0004:00000f84       $pdata$_IsNonwritableInCurrentImage$filt$0 000000018003cf84     MSVCRT:pesect.obj
 0004:00000f90       $pdata$_onexit$fin$0       000000018003cf90     MSVCRT:atonexit.obj
